---
triple:          'x86_64-apple-darwin'
binary-path:     '/Users/runner/work/mlc-python/mlc-python/build-wheels/cp313-cp313-macosx_10_13_x86_64-RelWithDebInfo/lib/libmlc_registry.dylib'
relocations:
  - { offsetInCU: 0x4C, offset: 0x4C, size: 0x8, addend: 0x0, symName: __ZN3mlc4base9PODTraitsI8DLDevicevE15str2device_typeE, symObjAddr: 0x313E0, symBinAddr: 0x68810, symSize: 0x0 }
  - { offsetInCU: 0x1D8F, offset: 0x1D8F, size: 0x8, addend: 0x0, symName: __ZN3mlc4base14MLCCreateErrorEPKcRKNSt3__112basic_stringIcNS3_11char_traitsIcEENS3_9allocatorIcEEEE12MLCByteArray, symObjAddr: 0xF310, symBinAddr: 0x140E0, symSize: 0xE0 }
  - { offsetInCU: 0x26F4, offset: 0x26F4, size: 0x8, addend: 0x0, symName: __ZN3mlc4base6DecRefEP6MLCAny, symObjAddr: 0x7C00, symBinAddr: 0xC9D0, symSize: 0x20 }
  - { offsetInCU: 0x27EE, offset: 0x27EE, size: 0x8, addend: 0x0, symName: __ZN3mlc4base13MLCThrowErrorEPKc12MLCByteArrayS3_, symObjAddr: 0xB010, symBinAddr: 0xFDE0, symSize: 0x110 }
  - { offsetInCU: 0x2D1A, offset: 0x2D1A, size: 0x8, addend: 0x0, symName: __ZN3mlc4base15String2DLDeviceERKNSt3__112basic_stringIcNS1_11char_traitsIcEENS1_9allocatorIcEEEE, symObjAddr: 0xF3F0, symBinAddr: 0x141C0, symSize: 0x250 }
  - { offsetInCU: 0x3680, offset: 0x3680, size: 0x8, addend: 0x0, symName: __ZN3mlc4base17String2DLDataTypeERKNSt3__112basic_stringIcNS1_11char_traitsIcEENS1_9allocatorIcEEEE, symObjAddr: 0xF900, symBinAddr: 0x146D0, symSize: 0x6F0 }
  - { offsetInCU: 0x71FF, offset: 0x71FF, size: 0x8, addend: 0x0, symName: __ZN3mlc4core16FuncCallUnpackedIPFNSt3__112basic_stringIcNS2_11char_traitsIcEENS2_9allocatorIcEEEENS_7AnyViewEEEEvPKNS_7FuncObjEiPKS9_PNS_3AnyE, symObjAddr: 0xBDD0, symBinAddr: 0x10BA0, symSize: 0x220 }
  - { offsetInCU: 0x7B12, offset: 0x7B12, size: 0x8, addend: 0x0, symName: __ZN3mlc4core12ObjPtrGetterINS_6ObjectEEEiP12MLCTypeFieldPvP6MLCAny, symObjAddr: 0xE0, symBinAddr: 0x4EB0, symSize: 0x20 }
  - { offsetInCU: 0x7B9F, offset: 0x7B9F, size: 0x8, addend: 0x0, symName: __ZN3mlc4core12ObjPtrSetterINS_6ObjectEEEiP12MLCTypeFieldPvP6MLCAny, symObjAddr: 0x100, symBinAddr: 0x4ED0, symSize: 0x260 }
  - { offsetInCU: 0x84BA, offset: 0x84BA, size: 0x8, addend: 0x0, symName: __ZN3mlc4core16FuncCallUnpackedIPFNS_3RefINS_6ObjectEEEvEEEvPKNS_7FuncObjEiPKNS_7AnyViewEPNS_3AnyE, symObjAddr: 0x188E0, symBinAddr: 0x1D6B0, symSize: 0x1A0 }
  - { offsetInCU: 0x89C8, offset: 0x89C8, size: 0x8, addend: 0x0, symName: __ZN3mlc4core12ObjPtrGetterINS_8ErrorObjEEEiP12MLCTypeFieldPvP6MLCAny, symObjAddr: 0x520, symBinAddr: 0x52F0, symSize: 0x20 }
  - { offsetInCU: 0x8A55, offset: 0x8A55, size: 0x8, addend: 0x0, symName: __ZN3mlc4core12ObjPtrSetterINS_8ErrorObjEEEiP12MLCTypeFieldPvP6MLCAny, symObjAddr: 0x540, symBinAddr: 0x5310, symSize: 0x310 }
  - { offsetInCU: 0x9496, offset: 0x9496, size: 0x8, addend: 0x0, symName: __ZN3mlc4core16FuncCallUnpackedIZNS0_17FuncAllocatorImplIMNS_8ErrorObjEKFNSt3__112basic_stringIcNS4_11char_traitsIcEENS4_9allocatorIcEEEEvEvE3RunESC_EUlPKS3_E_EEvPKNS_7FuncObjEiPKNS_7AnyViewEPNS_3AnyE, symObjAddr: 0x19740, symBinAddr: 0x1E510, symSize: 0x740 }
  - { offsetInCU: 0xAD45, offset: 0xAD45, size: 0x8, addend: 0x0, symName: __ZN3mlc4core12ObjPtrGetterINS_6StrObjEEEiP12MLCTypeFieldPvP6MLCAny, symObjAddr: 0xC60, symBinAddr: 0x5A30, symSize: 0x20 }
  - { offsetInCU: 0xADD2, offset: 0xADD2, size: 0x8, addend: 0x0, symName: __ZN3mlc4core12ObjPtrSetterINS_6StrObjEEEiP12MLCTypeFieldPvP6MLCAny, symObjAddr: 0xC80, symBinAddr: 0x5A50, symSize: 0x3A0 }
  - { offsetInCU: 0xB90D, offset: 0xB90D, size: 0x8, addend: 0x0, symName: __ZN3mlc4core16FuncCallUnpackedIZNS0_17FuncAllocatorImplIMNS_6StrObjEKFNSt3__112basic_stringIcNS4_11char_traitsIcEENS4_9allocatorIcEEEEvEvE3RunESC_EUlPKS3_E_EEvPKNS_7FuncObjEiPKNS_7AnyViewEPNS_3AnyE, symObjAddr: 0x1AC80, symBinAddr: 0x1FA50, symSize: 0x740 }
  - { offsetInCU: 0xD1BC, offset: 0xD1BC, size: 0x8, addend: 0x0, symName: __ZN3mlc4core12ObjPtrGetterINS_8UDictObjEEEiP12MLCTypeFieldPvP6MLCAny, symObjAddr: 0x1710, symBinAddr: 0x64E0, symSize: 0x20 }
  - { offsetInCU: 0xD249, offset: 0xD249, size: 0x8, addend: 0x0, symName: __ZN3mlc4core12ObjPtrSetterINS_8UDictObjEEEiP12MLCTypeFieldPvP6MLCAny, symObjAddr: 0x1730, symBinAddr: 0x6500, symSize: 0x310 }
  - { offsetInCU: 0xDCC6, offset: 0xDCC6, size: 0x8, addend: 0x0, symName: __ZN3mlc4core16FuncCallUnpackedIZNS0_17FuncAllocatorImplIMNS_8UDictObjEKFNSt3__112basic_stringIcNS4_11char_traitsIcEENS4_9allocatorIcEEEEvEvE3RunESC_EUlPKS3_E_EEvPKNS_7FuncObjEiPKNS_7AnyViewEPNS_3AnyE, symObjAddr: 0x1CF30, symBinAddr: 0x21D00, symSize: 0x740 }
  - { offsetInCU: 0xF5B1, offset: 0xF5B1, size: 0x8, addend: 0x0, symName: __ZN3mlc4core16FuncCallUnpackedIPFNS_3AnyEPNS_8UDictObjES2_EEEvPKNS_7FuncObjEiPKNS_7AnyViewEPS2_, symObjAddr: 0x1DEB0, symBinAddr: 0x22C80, symSize: 0x7F0 }
  - { offsetInCU: 0x10E42, offset: 0x10E42, size: 0x8, addend: 0x0, symName: __ZN3mlc4core16FuncCallUnpackedIPFNS_3AnyEPNS_8UDictObjExEEEvPKNS_7FuncObjEiPKNS_7AnyViewEPS2_, symObjAddr: 0x1EDF0, symBinAddr: 0x23BC0, symSize: 0xB40 }
  - { offsetInCU: 0x13549, offset: 0x13549, size: 0x8, addend: 0x0, symName: __ZN3mlc4core16FuncCallUnpackedIPFxPNS_8UDictObjExEEEvPKNS_7FuncObjEiPKNS_7AnyViewEPNS_3AnyE, symObjAddr: 0x1FE00, symBinAddr: 0x24BD0, symSize: 0xB00 }
  - { offsetInCU: 0x15B29, offset: 0x15B29, size: 0x8, addend: 0x0, symName: __ZN3mlc4core12ObjPtrGetterINS_7FuncObjEEEiP12MLCTypeFieldPvP6MLCAny, symObjAddr: 0x2F90, symBinAddr: 0x7D60, symSize: 0x20 }
  - { offsetInCU: 0x15BB6, offset: 0x15BB6, size: 0x8, addend: 0x0, symName: __ZN3mlc4core12ObjPtrSetterINS_7FuncObjEEEiP12MLCTypeFieldPvP6MLCAny, symObjAddr: 0x2FB0, symBinAddr: 0x7D80, symSize: 0x310 }
  - { offsetInCU: 0x16587, offset: 0x16587, size: 0x8, addend: 0x0, symName: __ZN3mlc4core12ObjPtrGetterINS_8UListObjEEEiP12MLCTypeFieldPvP6MLCAny, symObjAddr: 0x36C0, symBinAddr: 0x8490, symSize: 0x20 }
  - { offsetInCU: 0x16614, offset: 0x16614, size: 0x8, addend: 0x0, symName: __ZN3mlc4core12ObjPtrSetterINS_8UListObjEEEiP12MLCTypeFieldPvP6MLCAny, symObjAddr: 0x36E0, symBinAddr: 0x84B0, symSize: 0x310 }
  - { offsetInCU: 0x17055, offset: 0x17055, size: 0x8, addend: 0x0, symName: __ZN3mlc4core16FuncCallUnpackedIZNS0_17FuncAllocatorImplIMNS_8UListObjEKFNSt3__112basic_stringIcNS4_11char_traitsIcEENS4_9allocatorIcEEEEvEvE3RunESC_EUlPKS3_E_EEvPKNS_7FuncObjEiPKNS_7AnyViewEPNS_3AnyE, symObjAddr: 0x21AB0, symBinAddr: 0x26880, symSize: 0x740 }
  - { offsetInCU: 0x18940, offset: 0x18940, size: 0x8, addend: 0x0, symName: __ZN3mlc4core16FuncCallUnpackedIPFNS_3AnyEPNS_8UListObjExEEEvPKNS_7FuncObjEiPKNS_7AnyViewEPS2_, symObjAddr: 0x22780, symBinAddr: 0x27550, symSize: 0xB40 }
  - { offsetInCU: 0x1B047, offset: 0x1B047, size: 0x8, addend: 0x0, symName: __ZN3mlc4core16FuncCallUnpackedIPFNSt3__112basic_stringIcNS2_11char_traitsIcEENS2_9allocatorIcEEEEPvEEEvPKNS_7FuncObjEiPKNS_7AnyViewEPNS_3AnyE, symObjAddr: 0x238F0, symBinAddr: 0x286C0, symSize: 0x660 }
  - { offsetInCU: 0x1CAC3, offset: 0x1CAC3, size: 0x8, addend: 0x0, symName: __ZN3mlc4core16FuncCallUnpackedIPFNSt3__112basic_stringIcNS2_11char_traitsIcEENS2_9allocatorIcEEEExEEEvPKNS_7FuncObjEiPKNS_7AnyViewEPNS_3AnyE, symObjAddr: 0x24310, symBinAddr: 0x290E0, symSize: 0x640 }
  - { offsetInCU: 0x1E538, offset: 0x1E538, size: 0x8, addend: 0x0, symName: __ZN3mlc4core16FuncCallUnpackedIPFNSt3__112basic_stringIcNS2_11char_traitsIcEENS2_9allocatorIcEEEEdEEEvPKNS_7FuncObjEiPKNS_7AnyViewEPNS_3AnyE, symObjAddr: 0x24D10, symBinAddr: 0x29AE0, symSize: 0x660 }
  - { offsetInCU: 0x1FFB4, offset: 0x1FFB4, size: 0x8, addend: 0x0, symName: '__ZN3mlc4core16FuncCallUnpackedINS_8registry8_POD_REG3$_0EEEvPKNS_7FuncObjEiPKNS_7AnyViewEPNS_3AnyE', symObjAddr: 0x25600, symBinAddr: 0x2A3D0, symSize: 0x410 }
  - { offsetInCU: 0x21235, offset: 0x21235, size: 0x8, addend: 0x0, symName: __ZN3mlc4core16FuncCallUnpackedIPFNSt3__112basic_stringIcNS2_11char_traitsIcEENS2_9allocatorIcEEEE8DLDeviceEEEvPKNS_7FuncObjEiPKNS_7AnyViewEPNS_3AnyE, symObjAddr: 0x25DE0, symBinAddr: 0x2ABB0, symSize: 0x7D0 }
  - { offsetInCU: 0x2359B, offset: 0x2359B, size: 0x8, addend: 0x0, symName: '__ZN3mlc4core16FuncCallUnpackedINS_8registry8_POD_REG3$_1EEEvPKNS_7FuncObjEiPKNS_7AnyViewEPNS_3AnyE', symObjAddr: 0x26840, symBinAddr: 0x2B610, symSize: 0x410 }
  - { offsetInCU: 0x24882, offset: 0x24882, size: 0x8, addend: 0x0, symName: __ZN3mlc4core16FuncCallUnpackedIPFNSt3__112basic_stringIcNS2_11char_traitsIcEENS2_9allocatorIcEEEE10DLDataTypeEEEvPKNS_7FuncObjEiPKNS_7AnyViewEPNS_3AnyE, symObjAddr: 0x27020, symBinAddr: 0x2BDF0, symSize: 0x7D0 }
  - { offsetInCU: 0x26BBE, offset: 0x26BBE, size: 0x8, addend: 0x0, symName: __ZN3mlc4core16FuncCallUnpackedIPFNSt3__112basic_stringIcNS2_11char_traitsIcEENS2_9allocatorIcEEEEPKcEEEvPKNS_7FuncObjEiPKNS_7AnyViewEPNS_3AnyE, symObjAddr: 0x27BC0, symBinAddr: 0x2C990, symSize: 0x680 }
  - { offsetInCU: 0x28664, offset: 0x28664, size: 0x8, addend: 0x0, symName: '__ZN3mlc4core16FuncCallUnpackedIN12_GLOBAL__N_13$_2EEEvPKNS_7FuncObjEiPKNS_7AnyViewEPNS_3AnyE', symObjAddr: 0x284E0, symBinAddr: 0x2D2B0, symSize: 0x630 }
  - { offsetInCU: 0x2A08F, offset: 0x2A08F, size: 0x8, addend: 0x0, symName: __ZN3mlc4core16PrintAnyToStreamERNSt3__113basic_ostreamIcNS1_11char_traitsIcEEEEPK6MLCAny, symObjAddr: 0xA880, symBinAddr: 0xF650, symSize: 0x5C0 }
  - { offsetInCU: 0x2B58C, offset: 0x2B58C, size: 0x8, addend: 0x0, symName: __ZN3mlc4core14FuncCallPackedIZNS_7FuncObj11FromForeignEPvPFvS3_EPFiPKviPK6MLCAnyPS8_EEUliSA_SB_E_EEvPKS2_iPKNS_7AnyViewEPNS_3AnyE, symObjAddr: 0x17260, symBinAddr: 0x1C030, symSize: 0x10 }
  - { offsetInCU: 0x2B608, offset: 0x2B608, size: 0x8, addend: 0x0, symName: __ZN3mlc4core14FuncCallPackedIZNS_7FuncObj11FromForeignEPvPFvS3_EPFiPKviPK6MLCAnyPS8_EEUliSA_SB_E0_EEvPKS2_iPKNS_7AnyViewEPNS_3AnyE, symObjAddr: 0x174B0, symBinAddr: 0x1C280, symSize: 0x10 }
  - { offsetInCU: 0x2BC70, offset: 0x2BC70, size: 0x8, addend: 0x0, symName: __ZN3mlc4core14FuncCallPackedIPFviPKNS_7AnyViewEPNS_3AnyEEEEvPKNS_7FuncObjEiS4_S6_, symObjAddr: 0x1CDA0, symBinAddr: 0x21B70, symSize: 0x20 }
  - { offsetInCU: 0x304B3, offset: 0x304B3, size: 0x8, addend: 0x0, symName: __ZN3mlc8registry19ObjPtrSetterDefaultEP12MLCTypeFieldPvP6MLCAny, symObjAddr: 0x10300, symBinAddr: 0x150D0, symSize: 0x650 }
  - { offsetInCU: 0x31448, offset: 0x31448, size: 0x8, addend: 0x0, symName: __ZN3mlc8registry19ObjPtrGetterDefaultEP12MLCTypeFieldPvP6MLCAny, symObjAddr: 0x10950, symBinAddr: 0x15720, symSize: 0x20 }
  - { offsetInCU: 0x31574, offset: 0x31574, size: 0x8, addend: 0x0, symName: __ZN3mlc6InitOfINS_6ObjectEJEEENS_3RefIS1_EEDpOT0_, symObjAddr: 0x4E0, symBinAddr: 0x52B0, symSize: 0x40 }
  - { offsetInCU: 0x316DD, offset: 0x316DD, size: 0x8, addend: 0x0, symName: __ZN3mlclsERNSt3__113basic_ostreamIcNS0_11char_traitsIcEEEERKNS_3AnyE, symObjAddr: 0xC430, symBinAddr: 0x11200, symSize: 0x20 }
  - { offsetInCU: 0x54F19, offset: 0x54F19, size: 0x8, addend: 0x0, symName: __ZNSt3__1L19piecewise_constructE, symObjAddr: 0x35199, symBinAddr: 0x5E709, symSize: 0x0 }
  - { offsetInCU: 0x5D205, offset: 0x5D205, size: 0x8, addend: 0x0, symName: __ZNSt3__124__put_character_sequenceB7v160006IcNS_11char_traitsIcEEEERNS_13basic_ostreamIT_T0_EES7_PKS4_m, symObjAddr: 0xA110, symBinAddr: 0xEEE0, symSize: 0x150 }
  - { offsetInCU: 0x5E940, offset: 0x5E940, size: 0x8, addend: 0x0, symName: __ZNSt3__111__introsortINS_17_ClassicAlgPolicyERZN3mlc8registry15TypeInfoWrapper9SetFieldsExP12MLCTypeFieldEUlRKS5_S8_E_S6_EEvT1_SB_T0_NS_15iterator_traitsISB_E15difference_typeE, symObjAddr: 0x12410, symBinAddr: 0x171E0, symSize: 0xC50 }
  - { offsetInCU: 0x5FBB7, offset: 0x5FBB7, size: 0x8, addend: 0x0, symName: __ZNSt3__118__insertion_sort_3B7v160006INS_17_ClassicAlgPolicyERZN3mlc8registry15TypeInfoWrapper9SetFieldsExP12MLCTypeFieldEUlRKS5_S8_E_S6_EEvT1_SB_T0_, symObjAddr: 0x13060, symBinAddr: 0x17E30, symSize: 0x240 }
  - { offsetInCU: 0x5FFA3, offset: 0x5FFA3, size: 0x8, addend: 0x0, symName: __ZNSt3__127__insertion_sort_incompleteIRZN3mlc8registry15TypeInfoWrapper9SetFieldsExP12MLCTypeFieldEUlRKS4_S7_E_S5_EEbT0_SA_T_, symObjAddr: 0x132A0, symBinAddr: 0x18070, symSize: 0x6C0 }
  - { offsetInCU: 0x60ED3, offset: 0x60ED3, size: 0x8, addend: 0x0, symName: __ZNSt3__111__introsortINS_17_ClassicAlgPolicyERZN3mlc8registry15TypeInfoWrapper10SetMethodsExP13MLCTypeMethodEUlRKS5_S8_E_S6_EEvT1_SB_T0_NS_15iterator_traitsISB_E15difference_typeE, symObjAddr: 0x15380, symBinAddr: 0x1A150, symSize: 0x650 }
  - { offsetInCU: 0x61961, offset: 0x61961, size: 0x8, addend: 0x0, symName: __ZNSt3__111__sift_downB7v160006INS_17_ClassicAlgPolicyERZN3mlc8registry15TypeInfoWrapper10SetMethodsExP13MLCTypeMethodEUlRKS5_S8_E_S6_EEvT1_OT0_NS_15iterator_traitsISB_E15difference_typeESB_, symObjAddr: 0x15E90, symBinAddr: 0x1AC60, symSize: 0x180 }
  - { offsetInCU: 0x61AB2, offset: 0x61AB2, size: 0x8, addend: 0x0, symName: __ZNSt3__127__insertion_sort_incompleteIRZN3mlc8registry15TypeInfoWrapper10SetMethodsExP13MLCTypeMethodEUlRKS4_S7_E_S5_EEbT0_SA_T_, symObjAddr: 0x15B60, symBinAddr: 0x1A930, symSize: 0x210 }
  - { offsetInCU: 0x65A75, offset: 0x65A75, size: 0x8, addend: 0x0, symName: __ZNSt3__1lsB7v160006INS_11char_traitsIcEEEERNS_13basic_ostreamIcT_EES6_PKc, symObjAddr: 0x89E0, symBinAddr: 0xD7B0, symSize: 0x30 }
  - { offsetInCU: 0x65AEE, offset: 0x65AEE, size: 0x8, addend: 0x0, symName: __ZNSt3__1lsB7v160006IcNS_11char_traitsIcEENS_9allocatorIcEEEERNS_13basic_ostreamIT_T0_EES9_RKNS_12basic_stringIS6_S7_T1_EE, symObjAddr: 0xB690, symBinAddr: 0x10460, symSize: 0x30 }
  - { offsetInCU: 0x65C5A, offset: 0x65C5A, size: 0x8, addend: 0x0, symName: __ZNSt3__14endlB7v160006IcNS_11char_traitsIcEEEERNS_13basic_ostreamIT_T0_EES7_, symObjAddr: 0x8A10, symBinAddr: 0xD7E0, symSize: 0x90 }
  - { offsetInCU: 0x66447, offset: 0x66447, size: 0x8, addend: 0x0, symName: __ZNSt3__116__pad_and_outputB7v160006IcNS_11char_traitsIcEEEENS_19ostreambuf_iteratorIT_T0_EES6_PKS4_S8_S8_RNS_8ios_baseES4_, symObjAddr: 0xA260, symBinAddr: 0xF030, symSize: 0x150 }
  - { offsetInCU: 0x66C09, offset: 0x66C09, size: 0x8, addend: 0x0, symName: __ZNSt3__120__throw_length_errorB7v160006EPKc, symObjAddr: 0xA3C0, symBinAddr: 0xF190, symSize: 0x50 }
  - { offsetInCU: 0x67191, offset: 0x67191, size: 0x8, addend: 0x0, symName: __ZNSt3__120__throw_out_of_rangeB7v160006EPKc, symObjAddr: 0xF640, symBinAddr: 0x14410, symSize: 0x50 }
  - { offsetInCU: 0x67D13, offset: 0x67D13, size: 0x8, addend: 0x0, symName: __ZNSt3__17__sort4B7v160006INS_17_ClassicAlgPolicyERZN3mlc8registry15TypeInfoWrapper9SetFieldsExP12MLCTypeFieldEUlRKS5_S8_E_S6_EEjT1_SB_SB_SB_T0_, symObjAddr: 0x13960, symBinAddr: 0x18730, symSize: 0x2B0 }
  - { offsetInCU: 0x681B5, offset: 0x681B5, size: 0x8, addend: 0x0, symName: __ZNSt3__119__partial_sort_implB7v160006INS_17_ClassicAlgPolicyERZN3mlc8registry15TypeInfoWrapper9SetFieldsExP12MLCTypeFieldEUlRKS5_S8_E_S6_S6_EET1_SB_SB_T2_OT0_, symObjAddr: 0x13C10, symBinAddr: 0x189E0, symSize: 0x4F0 }
  - { offsetInCU: 0x68D57, offset: 0x68D57, size: 0x8, addend: 0x0, symName: __ZNSt3__17__sort5IRZN3mlc8registry15TypeInfoWrapper10SetMethodsExP13MLCTypeMethodEUlRKS4_S7_E_S5_EEjT0_SA_SA_SA_SA_T_, symObjAddr: 0x16210, symBinAddr: 0x1AFE0, symSize: 0x180 }
  - { offsetInCU: 0x6905F, offset: 0x6905F, size: 0x8, addend: 0x0, symName: __ZNSt3__17__sort3B7v160006INS_17_ClassicAlgPolicyERZN3mlc8registry15TypeInfoWrapper10SetMethodsExP13MLCTypeMethodEUlRKS5_S8_E_S6_EEjT1_SB_SB_T0_, symObjAddr: 0x159D0, symBinAddr: 0x1A7A0, symSize: 0x190 }
  - { offsetInCU: 0x69333, offset: 0x69333, size: 0x8, addend: 0x0, symName: __ZNSt3__17__sort4B7v160006INS_17_ClassicAlgPolicyERZN3mlc8registry15TypeInfoWrapper10SetMethodsExP13MLCTypeMethodEUlRKS5_S8_E_S6_EEjT1_SB_SB_SB_T0_, symObjAddr: 0x15D70, symBinAddr: 0x1AB40, symSize: 0x120 }
  - { offsetInCU: 0x69582, offset: 0x69582, size: 0x8, addend: 0x0, symName: __ZNSt3__111__sort_heapB7v160006INS_17_ClassicAlgPolicyERZN3mlc8registry15TypeInfoWrapper10SetMethodsExP13MLCTypeMethodEUlRKS5_S8_E_S6_EEvT1_SB_OT0_, symObjAddr: 0x16010, symBinAddr: 0x1ADE0, symSize: 0x200 }
  - { offsetInCU: 0x6A091, offset: 0x6A091, size: 0x8, addend: 0x0, symName: __ZNSt3__130__uninitialized_allocator_copyB7v160006INS_9allocatorIN3mlc3AnyEEEPKNS2_7AnyViewES7_PS3_EET2_RT_T0_T1_S9_, symObjAddr: 0x21450, symBinAddr: 0x26220, symSize: 0x140 }
  - { offsetInCU: 0x6ACE4, offset: 0x6ACE4, size: 0x8, addend: 0x0, symName: __ZSt28__throw_bad_array_new_lengthB7v160006v, symObjAddr: 0xA440, symBinAddr: 0xF210, symSize: 0x40 }
  - { offsetInCU: 0x6B709, offset: 0x6B709, size: 0x8, addend: 0x0, symName: __ZN3mlc4base9PODTraitsI10DLDataTypevE6presetE, symObjAddr: 0x31410, symBinAddr: 0x68840, symSize: 0x0 }
  - { offsetInCU: 0x6BCD5, offset: 0x6BCD5, size: 0x8, addend: 0x0, symName: __ZN3mlc6Object10_type_infoE, symObjAddr: 0x31440, symBinAddr: 0x68870, symSize: 0x0 }
  - { offsetInCU: 0x6C0A7, offset: 0x6C0A7, size: 0x8, addend: 0x0, symName: __ZN3mlc6Object13_type_reflectE, symObjAddr: 0x31450, symBinAddr: 0x68880, symSize: 0x0 }
  - { offsetInCU: 0x6C0BA, offset: 0x6C0BA, size: 0x8, addend: 0x0, symName: __ZN3mlc9ObjectRef13_type_reflectE, symObjAddr: 0x31460, symBinAddr: 0x68890, symSize: 0x0 }
  - { offsetInCU: 0x6C0CD, offset: 0x6C0CD, size: 0x8, addend: 0x0, symName: __ZN3mlc8ErrorObj10_type_infoE, symObjAddr: 0x31470, symBinAddr: 0x688A0, symSize: 0x0 }
  - { offsetInCU: 0x6C32A, offset: 0x6C32A, size: 0x8, addend: 0x0, symName: __ZN3mlc8ErrorObj13_type_reflectE, symObjAddr: 0x31480, symBinAddr: 0x688B0, symSize: 0x0 }
  - { offsetInCU: 0x6C33D, offset: 0x6C33D, size: 0x8, addend: 0x0, symName: __ZN3mlc5Error13_type_reflectE, symObjAddr: 0x31490, symBinAddr: 0x688C0, symSize: 0x0 }
  - { offsetInCU: 0x6C390, offset: 0x6C390, size: 0x8, addend: 0x0, symName: __ZN3mlc6StrObj10_type_infoE, symObjAddr: 0x314A0, symBinAddr: 0x688D0, symSize: 0x0 }
  - { offsetInCU: 0x6C3A3, offset: 0x6C3A3, size: 0x8, addend: 0x0, symName: __ZN3mlc6StrObj13_type_reflectE, symObjAddr: 0x314B0, symBinAddr: 0x688E0, symSize: 0x0 }
  - { offsetInCU: 0x6C3B6, offset: 0x6C3B6, size: 0x8, addend: 0x0, symName: __ZN3mlc3Str13_type_reflectE, symObjAddr: 0x314C0, symBinAddr: 0x688F0, symSize: 0x0 }
  - { offsetInCU: 0x6C3C9, offset: 0x6C3C9, size: 0x8, addend: 0x0, symName: __ZN3mlc8UDictObj10_type_infoE, symObjAddr: 0x314D0, symBinAddr: 0x68900, symSize: 0x0 }
  - { offsetInCU: 0x6C595, offset: 0x6C595, size: 0x8, addend: 0x0, symName: __ZN3mlc8UDictObj13_type_reflectE, symObjAddr: 0x314E0, symBinAddr: 0x68910, symSize: 0x0 }
  - { offsetInCU: 0x6C5A8, offset: 0x6C5A8, size: 0x8, addend: 0x0, symName: __ZN3mlc5UDict13_type_reflectE, symObjAddr: 0x314F0, symBinAddr: 0x68920, symSize: 0x0 }
  - { offsetInCU: 0x6C670, offset: 0x6C670, size: 0x8, addend: 0x0, symName: __ZN3mlc7FuncObj10_type_infoE, symObjAddr: 0x31500, symBinAddr: 0x68930, symSize: 0x0 }
  - { offsetInCU: 0x6C6FE, offset: 0x6C6FE, size: 0x8, addend: 0x0, symName: __ZN3mlc7FuncObj13_type_reflectE, symObjAddr: 0x31510, symBinAddr: 0x68940, symSize: 0x0 }
  - { offsetInCU: 0x6C711, offset: 0x6C711, size: 0x8, addend: 0x0, symName: __ZN3mlc4Func13_type_reflectE, symObjAddr: 0x31520, symBinAddr: 0x68950, symSize: 0x0 }
  - { offsetInCU: 0x6C764, offset: 0x6C764, size: 0x8, addend: 0x0, symName: __ZN3mlc8UListObj10_type_infoE, symObjAddr: 0x31530, symBinAddr: 0x68960, symSize: 0x0 }
  - { offsetInCU: 0x6C853, offset: 0x6C853, size: 0x8, addend: 0x0, symName: __ZN3mlc8UListObj13_type_reflectE, symObjAddr: 0x31540, symBinAddr: 0x68970, symSize: 0x0 }
  - { offsetInCU: 0x6C866, offset: 0x6C866, size: 0x8, addend: 0x0, symName: __ZN3mlc5UList13_type_reflectE, symObjAddr: 0x31550, symBinAddr: 0x68980, symSize: 0x0 }
  - { offsetInCU: 0x6C8FA, offset: 0x6C8FA, size: 0x8, addend: 0x0, symName: __ZN3mlc8registry8_POD_REG5_noneE, symObjAddr: 0x31560, symBinAddr: 0x68990, symSize: 0x0 }
  - { offsetInCU: 0x6C90D, offset: 0x6C90D, size: 0x8, addend: 0x0, symName: __ZN3mlc8registry8_POD_REG4_intE, symObjAddr: 0x31570, symBinAddr: 0x689A0, symSize: 0x0 }
  - { offsetInCU: 0x6C920, offset: 0x6C920, size: 0x8, addend: 0x0, symName: __ZN3mlc8registry8_POD_REG6_floatE, symObjAddr: 0x31580, symBinAddr: 0x689B0, symSize: 0x0 }
  - { offsetInCU: 0x6C933, offset: 0x6C933, size: 0x8, addend: 0x0, symName: __ZN3mlc8registry8_POD_REG4_ptrE, symObjAddr: 0x31590, symBinAddr: 0x689C0, symSize: 0x0 }
  - { offsetInCU: 0x6C946, offset: 0x6C946, size: 0x8, addend: 0x0, symName: __ZN3mlc8registry8_POD_REG7_deviceE, symObjAddr: 0x315A0, symBinAddr: 0x689D0, symSize: 0x0 }
  - { offsetInCU: 0x6C959, offset: 0x6C959, size: 0x8, addend: 0x0, symName: __ZN3mlc8registry8_POD_REG6_dtypeE, symObjAddr: 0x315B0, symBinAddr: 0x689E0, symSize: 0x0 }
  - { offsetInCU: 0x6C96C, offset: 0x6C96C, size: 0x8, addend: 0x0, symName: __ZN3mlc8registry8_POD_REG4_strE, symObjAddr: 0x315C0, symBinAddr: 0x689F0, symSize: 0x0 }
  - { offsetInCU: 0x6F5BF, offset: 0x6F5BF, size: 0x8, addend: 0x0, symName: __ZN3mlc8registry9TypeTable6GlobalEv, symObjAddr: 0x5810, symBinAddr: 0xA5E0, symSize: 0x60 }
  - { offsetInCU: 0x6F5DF, offset: 0x6F5DF, size: 0x8, addend: 0x0, symName: __ZZN3mlc8registry9TypeTable6GlobalEvE8instance, symObjAddr: 0x375498, symBinAddr: 0x68B88, symSize: 0x0 }
  - { offsetInCU: 0x6F619, offset: 0x6F619, size: 0x8, addend: 0x0, symName: _MLCErrorGetInfo, symObjAddr: 0x9140, symBinAddr: 0xDF10, symSize: 0x300 }
  - { offsetInCU: 0x6FD57, offset: 0x6FD57, size: 0x8, addend: 0x0, symName: __ZN3mlc4core9DictBlock18kNextProbeLocationE, symObjAddr: 0x351E0, symBinAddr: 0x5E750, symSize: 0x0 }
  - { offsetInCU: 0x70BC7, offset: 0x70BC7, size: 0x8, addend: 0x0, symName: __ZN3mlc7FuncObj11FromForeignEPvPFvS1_EPFiPKviPK6MLCAnyPS6_E, symObjAddr: 0x8D40, symBinAddr: 0xDB10, symSize: 0x150 }
  - { offsetInCU: 0x73DEE, offset: 0x73DEE, size: 0x8, addend: 0x0, symName: __ZNSt3__112__hash_tableINS_17__hash_value_typeINS_12basic_stringIcNS_11char_traitsIcEENS_9allocatorIcEEEE12DLDeviceTypeEENS_22__unordered_map_hasherIS7_S9_NS_4hashIS7_EENS_8equal_toIS7_EELb1EEENS_21__unordered_map_equalIS7_S9_SE_SC_Lb1EEENS5_IS9_EEE25__emplace_unique_key_argsIS7_JRKNS_4pairIKS7_S8_EEEEENSL_INS_15__hash_iteratorIPNS_11__hash_nodeIS9_PvEEEEbEERKT_DpOT0_, symObjAddr: 0x177C0, symBinAddr: 0x1C590, symSize: 0x570 }
  - { offsetInCU: 0x7476B, offset: 0x7476B, size: 0x8, addend: 0x0, symName: __ZNSt3__113unordered_mapINS_12basic_stringIcNS_11char_traitsIcEENS_9allocatorIcEEEE12DLDeviceTypeNS_4hashIS6_EENS_8equal_toIS6_EENS4_INS_4pairIKS6_S7_EEEEED1B7v160006Ev, symObjAddr: 0x0, symBinAddr: 0x4DD0, symSize: 0x70 }
  - { offsetInCU: 0x74D4C, offset: 0x74D4C, size: 0x8, addend: 0x0, symName: __ZNSt3__112__hash_tableINS_17__hash_value_typeINS_12basic_stringIcNS_11char_traitsIcEENS_9allocatorIcEEEE10DLDataTypeEENS_22__unordered_map_hasherIS7_S9_NS_4hashIS7_EENS_8equal_toIS7_EELb1EEENS_21__unordered_map_equalIS7_S9_SE_SC_Lb1EEENS5_IS9_EEE25__emplace_unique_key_argsIS7_JRKNS_4pairIKS7_S8_EEEEENSL_INS_15__hash_iteratorIPNS_11__hash_nodeIS9_PvEEEEbEERKT_DpOT0_, symObjAddr: 0x17FB0, symBinAddr: 0x1CD80, symSize: 0x570 }
  - { offsetInCU: 0x755FE, offset: 0x755FE, size: 0x8, addend: 0x0, symName: __ZNSt3__113unordered_mapINS_12basic_stringIcNS_11char_traitsIcEENS_9allocatorIcEEEE10DLDataTypeNS_4hashIS6_EENS_8equal_toIS6_EENS4_INS_4pairIKS6_S7_EEEEED1B7v160006Ev, symObjAddr: 0x70, symBinAddr: 0x4E40, symSize: 0x70 }
  - { offsetInCU: 0x75A23, offset: 0x75A23, size: 0x8, addend: 0x0, symName: _MLCTypeRegister, symObjAddr: 0x5B40, symBinAddr: 0xA910, symSize: 0x290 }
  - { offsetInCU: 0x76299, offset: 0x76299, size: 0x8, addend: 0x0, symName: __ZNSt3__119basic_ostringstreamIcNS_11char_traitsIcEENS_9allocatorIcEEEC1B7v160006Ev, symObjAddr: 0x9A40, symBinAddr: 0xE810, symSize: 0xD0 }
  - { offsetInCU: 0x76347, offset: 0x76347, size: 0x8, addend: 0x0, symName: _MLCTypeIndex2Info, symObjAddr: 0x6300, symBinAddr: 0xB0D0, symSize: 0x2B0 }
  - { offsetInCU: 0x76880, offset: 0x76880, size: 0x8, addend: 0x0, symName: __ZNKSt3__115basic_stringbufIcNS_11char_traitsIcEENS_9allocatorIcEEE3strEv, symObjAddr: 0xA480, symBinAddr: 0xF250, symSize: 0x400 }
  - { offsetInCU: 0x76E9C, offset: 0x76E9C, size: 0x8, addend: 0x0, symName: __ZNSt3__119basic_ostringstreamIcNS_11char_traitsIcEENS_9allocatorIcEEED1Ev, symObjAddr: 0x9B10, symBinAddr: 0xE8E0, symSize: 0x80 }
  - { offsetInCU: 0x77034, offset: 0x77034, size: 0x8, addend: 0x0, symName: __ZN3mlc4base16ReflectionHelperD2Ev, symObjAddr: 0x98A0, symBinAddr: 0xE670, symSize: 0x110 }
  - { offsetInCU: 0x777FB, offset: 0x777FB, size: 0x8, addend: 0x0, symName: __ZN3mlc4base16ReflectionHelper8StaticFnIRFNS_3RefINS_6ObjectEEEvEEERS1_PKcOT_, symObjAddr: 0x360, symBinAddr: 0x5130, symSize: 0x180 }
  - { offsetInCU: 0x77DF0, offset: 0x77DF0, size: 0x8, addend: 0x0, symName: __ZN3mlc4base16ReflectionHelper5MemFnIPFNSt3__112basic_stringIcNS3_11char_traitsIcEENS3_9allocatorIcEEEENS_7AnyViewEEEERS1_PKcOT_, symObjAddr: 0xBB10, symBinAddr: 0x108E0, symSize: 0x180 }
  - { offsetInCU: 0x783E0, offset: 0x783E0, size: 0x8, addend: 0x0, symName: _MLCTypeDefReflection, symObjAddr: 0x6910, symBinAddr: 0xB6E0, symSize: 0x290 }
  - { offsetInCU: 0x78D10, offset: 0x78D10, size: 0x8, addend: 0x0, symName: __ZN3mlc4base16ReflectionHelper13PrepareMethodIRFNS_3RefINS_6ObjectEEEvEEE13MLCTypeMethodPKcOT_, symObjAddr: 0x187A0, symBinAddr: 0x1D570, symSize: 0x140 }
  - { offsetInCU: 0x79304, offset: 0x79304, size: 0x8, addend: 0x0, symName: __ZNKSt3__16vectorI13MLCTypeMethodNS_9allocatorIS1_EEE20__throw_length_errorB7v160006Ev, symObjAddr: 0xC420, symBinAddr: 0x111F0, symSize: 0x10 }
  - { offsetInCU: 0x7932D, offset: 0x7932D, size: 0x8, addend: 0x0, symName: __ZN3mlclsERNSt3__113basic_ostreamIcNS0_11char_traitsIcEEEERKNS_3AnyE, symObjAddr: 0xC430, symBinAddr: 0x11200, symSize: 0x20 }
  - { offsetInCU: 0x7951E, offset: 0x7951E, size: 0x8, addend: 0x0, symName: __ZN3mlc4base12ErrorBuilderC1EPKc12MLCByteArray, symObjAddr: 0xAE40, symBinAddr: 0xFC10, symSize: 0xE0 }
  - { offsetInCU: 0x79623, offset: 0x79623, size: 0x8, addend: 0x0, symName: __ZN3mlc4base12ErrorBuilderD1Ev, symObjAddr: 0xAF20, symBinAddr: 0xFCF0, symSize: 0x10 }
  - { offsetInCU: 0x7966D, offset: 0x7966D, size: 0x8, addend: 0x0, symName: __ZN3mlc4base16ReflectionHelper13FieldReadOnlyI8MLCErrorPKcEERS1_S5_MT_T0_, symObjAddr: 0x850, symBinAddr: 0x5620, symSize: 0x1D0 }
  - { offsetInCU: 0x79C19, offset: 0x79C19, size: 0x8, addend: 0x0, symName: __ZN3mlc4base16ReflectionHelper5MemFnIMNS_8ErrorObjEKFNSt3__112basic_stringIcNS4_11char_traitsIcEENS4_9allocatorIcEEEEvEEERS1_PKcOT_, symObjAddr: 0xA20, symBinAddr: 0x57F0, symSize: 0x180 }
  - { offsetInCU: 0x7A6B8, offset: 0x7A6B8, size: 0x8, addend: 0x0, symName: __ZZN3mlc4base16ReflectionHelper12PrepareFieldI8MLCErrorPKcEE12MLCTypeFieldS5_MT_T0_ENKUlvE_clEv, symObjAddr: 0x18FC0, symBinAddr: 0x1DD90, symSize: 0x250 }
  - { offsetInCU: 0x7ADB4, offset: 0x7ADB4, size: 0x8, addend: 0x0, symName: __ZNKSt3__16vectorI12MLCTypeFieldNS_9allocatorIS1_EEE20__throw_length_errorB7v160006Ev, symObjAddr: 0x195E0, symBinAddr: 0x1E3B0, symSize: 0x10 }
  - { offsetInCU: 0x7ADDD, offset: 0x7ADDD, size: 0x8, addend: 0x0, symName: __ZN3mlc4base16ReflectionHelper13PrepareMethodIMNS_8ErrorObjEKFNSt3__112basic_stringIcNS4_11char_traitsIcEENS4_9allocatorIcEEEEvEEE13MLCTypeMethodPKcOT_, symObjAddr: 0x195F0, symBinAddr: 0x1E3C0, symSize: 0x150 }
  - { offsetInCU: 0x7ADE8, offset: 0x7ADE8, size: 0x8, addend: 0x0, symName: __ZN3mlc4base16ReflectionHelper13PrepareMethodIMNS_8ErrorObjEKFNSt3__112basic_stringIcNS4_11char_traitsIcEENS4_9allocatorIcEEEEvEEE13MLCTypeMethodPKcOT_, symObjAddr: 0x195F0, symBinAddr: 0x1E3C0, symSize: 0x150 }
  - { offsetInCU: 0x7B48C, offset: 0x7B48C, size: 0x8, addend: 0x0, symName: __ZNK3mlc8ErrorObj7__str__Ev, symObjAddr: 0xBA0, symBinAddr: 0x5970, symSize: 0x90 }
  - { offsetInCU: 0x7B8B9, offset: 0x7B8B9, size: 0x8, addend: 0x0, symName: __ZNKSt3__112basic_stringIcNS_11char_traitsIcEENS_9allocatorIcEEE20__throw_length_errorB7v160006Ev, symObjAddr: 0xA3B0, symBinAddr: 0xF180, symSize: 0x10 }
  - { offsetInCU: 0x7B8E2, offset: 0x7B8E2, size: 0x8, addend: 0x0, symName: __ZNSt3__120__throw_length_errorB7v160006EPKc, symObjAddr: 0xA3C0, symBinAddr: 0xF190, symSize: 0x50 }
  - { offsetInCU: 0x7B909, offset: 0x7B909, size: 0x8, addend: 0x0, symName: __ZNK3mlc9Exception4whatEv, symObjAddr: 0xC30, symBinAddr: 0x5A00, symSize: 0x20 }
  - { offsetInCU: 0x7BBD6, offset: 0x7BBD6, size: 0x8, addend: 0x0, symName: __ZN3mlc4base16ReflectionHelper13FieldReadOnlyI6MLCStrxEERS1_PKcMT_T0_, symObjAddr: 0x1020, symBinAddr: 0x5DF0, symSize: 0x1D0 }
  - { offsetInCU: 0x7C186, offset: 0x7C186, size: 0x8, addend: 0x0, symName: __ZN3mlc4base16ReflectionHelper13FieldReadOnlyI6MLCStrPcEERS1_PKcMT_T0_, symObjAddr: 0x11F0, symBinAddr: 0x5FC0, symSize: 0x1D0 }
  - { offsetInCU: 0x7C732, offset: 0x7C732, size: 0x8, addend: 0x0, symName: __ZN3mlc4base16ReflectionHelper5MemFnIMNS_6StrObjEKFNSt3__112basic_stringIcNS4_11char_traitsIcEENS4_9allocatorIcEEEEvEEERS1_PKcOT_, symObjAddr: 0x13C0, symBinAddr: 0x6190, symSize: 0x180 }
  - { offsetInCU: 0x7CDC7, offset: 0x7CDC7, size: 0x8, addend: 0x0, symName: __ZZN3mlc4base16ReflectionHelper12PrepareFieldI6MLCStrxEE12MLCTypeFieldPKcMT_T0_ENKUlvE_clEv, symObjAddr: 0x1A250, symBinAddr: 0x1F020, symSize: 0x250 }
  - { offsetInCU: 0x7D569, offset: 0x7D569, size: 0x8, addend: 0x0, symName: __ZZN3mlc4base16ReflectionHelper12PrepareFieldI6MLCStrPcEE12MLCTypeFieldPKcMT_T0_ENKUlvE_clEv, symObjAddr: 0x1A6C0, symBinAddr: 0x1F490, symSize: 0x250 }
  - { offsetInCU: 0x7DC65, offset: 0x7DC65, size: 0x8, addend: 0x0, symName: __ZN3mlc4base16ReflectionHelper13PrepareMethodIMNS_6StrObjEKFNSt3__112basic_stringIcNS4_11char_traitsIcEENS4_9allocatorIcEEEEvEEE13MLCTypeMethodPKcOT_, symObjAddr: 0x1AB30, symBinAddr: 0x1F900, symSize: 0x150 }
  - { offsetInCU: 0x7E381, offset: 0x7E381, size: 0x8, addend: 0x0, symName: __ZNK3mlc6StrObj7__str__Ev, symObjAddr: 0x1540, symBinAddr: 0x6310, symSize: 0x1D0 }
  - { offsetInCU: 0x7E899, offset: 0x7E899, size: 0x8, addend: 0x0, symName: __ZN3mlc4base16ReflectionHelper13FieldReadOnlyI7MLCDictxEERS1_PKcMT_T0_, symObjAddr: 0x1A40, symBinAddr: 0x6810, symSize: 0x1D0 }
  - { offsetInCU: 0x7EE49, offset: 0x7EE49, size: 0x8, addend: 0x0, symName: __ZN3mlc4base16ReflectionHelper13FieldReadOnlyI7MLCDictPvEERS1_PKcMT_T0_, symObjAddr: 0x1C10, symBinAddr: 0x69E0, symSize: 0x1D0 }
  - { offsetInCU: 0x7F3F5, offset: 0x7F3F5, size: 0x8, addend: 0x0, symName: __ZN3mlc4base16ReflectionHelper8StaticFnIRFviPKNS_7AnyViewEPNS_3AnyEEEERS1_PKcOT_, symObjAddr: 0x1DE0, symBinAddr: 0x6BB0, symSize: 0x180 }
  - { offsetInCU: 0x7F9EA, offset: 0x7F9EA, size: 0x8, addend: 0x0, symName: __ZN3mlc4base16ReflectionHelper5MemFnIMNS_8UDictObjEKFNSt3__112basic_stringIcNS4_11char_traitsIcEENS4_9allocatorIcEEEEvEEERS1_PKcOT_, symObjAddr: 0x2560, symBinAddr: 0x7330, symSize: 0x180 }
  - { offsetInCU: 0x7FFDF, offset: 0x7FFDF, size: 0x8, addend: 0x0, symName: __ZN3mlc4base16ReflectionHelper5MemFnIRFNS_3AnyEPNS_8UDictObjES3_EEERS1_PKcOT_, symObjAddr: 0x2980, symBinAddr: 0x7750, symSize: 0x180 }
  - { offsetInCU: 0x805D4, offset: 0x805D4, size: 0x8, addend: 0x0, symName: __ZN3mlc4base16ReflectionHelper5MemFnIRFNS_3AnyEPNS_8UDictObjExEEERS1_PKcOT_, symObjAddr: 0x2BC0, symBinAddr: 0x7990, symSize: 0x180 }
  - { offsetInCU: 0x80BC9, offset: 0x80BC9, size: 0x8, addend: 0x0, symName: __ZN3mlc4base16ReflectionHelper5MemFnIRFxPNS_8UDictObjExEEERS1_PKcOT_, symObjAddr: 0x2DC0, symBinAddr: 0x7B90, symSize: 0x180 }
  - { offsetInCU: 0x8125E, offset: 0x8125E, size: 0x8, addend: 0x0, symName: __ZZN3mlc4base16ReflectionHelper12PrepareFieldI7MLCDictxEE12MLCTypeFieldPKcMT_T0_ENKUlvE_clEv, symObjAddr: 0x1B780, symBinAddr: 0x20550, symSize: 0x250 }
  - { offsetInCU: 0x81A00, offset: 0x81A00, size: 0x8, addend: 0x0, symName: __ZZN3mlc4base16ReflectionHelper12PrepareFieldI7MLCDictPvEE12MLCTypeFieldPKcMT_T0_ENKUlvE_clEv, symObjAddr: 0x1BA20, symBinAddr: 0x207F0, symSize: 0x250 }
  - { offsetInCU: 0x820FC, offset: 0x820FC, size: 0x8, addend: 0x0, symName: __ZN3mlc4base16ReflectionHelper13PrepareMethodIRFviPKNS_7AnyViewEPNS_3AnyEEEE13MLCTypeMethodPKcOT_, symObjAddr: 0x1CC60, symBinAddr: 0x21A30, symSize: 0x140 }
  - { offsetInCU: 0x82914, offset: 0x82914, size: 0x8, addend: 0x0, symName: __ZN3mlc4core8DictBase3ffiINS_8UDictObjEE3NewEiPKNS_7AnyViewEPNS_3AnyE, symObjAddr: 0x1F60, symBinAddr: 0x6D30, symSize: 0x600 }
  - { offsetInCU: 0x83424, offset: 0x83424, size: 0x8, addend: 0x0, symName: __ZN3mlc4core8DictBase14InsertOrLookupINS_8UDictObjEEEPNSt3__14pairI6MLCAnyS6_EENS_3AnyE, symObjAddr: 0x1BE90, symBinAddr: 0x20C60, symSize: 0xE0 }
  - { offsetInCU: 0x835D0, offset: 0x835D0, size: 0x8, addend: 0x0, symName: __ZN3mlc3RefINS_8UDictObjEED1Ev, symObjAddr: 0x1B740, symBinAddr: 0x20510, symSize: 0x40 }
  - { offsetInCU: 0x83681, offset: 0x83681, size: 0x8, addend: 0x0, symName: __ZN3mlc4base16ReflectionHelper13PrepareMethodIMNS_8UDictObjEKFNSt3__112basic_stringIcNS4_11char_traitsIcEENS4_9allocatorIcEEEEvEEE13MLCTypeMethodPKcOT_, symObjAddr: 0x1CDE0, symBinAddr: 0x21BB0, symSize: 0x150 }
  - { offsetInCU: 0x83C3E, offset: 0x83C3E, size: 0x8, addend: 0x0, symName: __ZNK3mlc8UDictObj7__str__Ev, symObjAddr: 0x26E0, symBinAddr: 0x74B0, symSize: 0x2A0 }
  - { offsetInCU: 0x84203, offset: 0x84203, size: 0x8, addend: 0x0, symName: __ZN3mlc4base16ReflectionHelper13PrepareMethodIRFNS_3AnyEPNS_8UDictObjES3_EEE13MLCTypeMethodPKcOT_, symObjAddr: 0x1DD70, symBinAddr: 0x22B40, symSize: 0x140 }
  - { offsetInCU: 0x848EE, offset: 0x848EE, size: 0x8, addend: 0x0, symName: __ZN3mlc4core8DictBase3ffiINS_8UDictObjEE7GetItemEPS3_NS_3AnyE, symObjAddr: 0x2B00, symBinAddr: 0x78D0, symSize: 0xC0 }
  - { offsetInCU: 0x84ABC, offset: 0x84ABC, size: 0x8, addend: 0x0, symName: __ZNK3mlc4core8DictBase6LookupINS0_7AnyHashENS0_8AnyEqualEEENS0_13DictBlockIterERK6MLCAny, symObjAddr: 0x1DBE0, symBinAddr: 0x229B0, symSize: 0x190 }
  - { offsetInCU: 0x84C9F, offset: 0x84C9F, size: 0x8, addend: 0x0, symName: __ZN3mlc4base16ReflectionHelper13PrepareMethodIRFNS_3AnyEPNS_8UDictObjExEEE13MLCTypeMethodPKcOT_, symObjAddr: 0x1ECB0, symBinAddr: 0x23A80, symSize: 0x140 }
  - { offsetInCU: 0x852CD, offset: 0x852CD, size: 0x8, addend: 0x0, symName: __ZN3mlc4core8DictBase3ffiINS_8UDictObjEE6GetKeyEPS3_x, symObjAddr: 0x2D40, symBinAddr: 0x7B10, symSize: 0x40 }
  - { offsetInCU: 0x853D4, offset: 0x853D4, size: 0x8, addend: 0x0, symName: __ZN3mlc4core8DictBase3ffiINS_8UDictObjEE8GetValueEPS3_x, symObjAddr: 0x2D80, symBinAddr: 0x7B50, symSize: 0x40 }
  - { offsetInCU: 0x854DB, offset: 0x854DB, size: 0x8, addend: 0x0, symName: __ZN3mlc4base16ReflectionHelper13PrepareMethodIRFxPNS_8UDictObjExEEE13MLCTypeMethodPKcOT_, symObjAddr: 0x1FCC0, symBinAddr: 0x24A90, symSize: 0x140 }
  - { offsetInCU: 0x85B23, offset: 0x85B23, size: 0x8, addend: 0x0, symName: __ZN3mlc4core8DictBase3ffiINS_8UDictObjEE7AdvanceEPS3_x, symObjAddr: 0x2F40, symBinAddr: 0x7D10, symSize: 0x50 }
  - { offsetInCU: 0x85D34, offset: 0x85D34, size: 0x8, addend: 0x0, symName: __ZN3mlc4base16ReflectionHelper8StaticFnIRFNSt3__112basic_stringIcNS3_11char_traitsIcEENS3_9allocatorIcEEEENS_7AnyViewEEEERS1_PKcOT_, symObjAddr: 0x32C0, symBinAddr: 0x8090, symSize: 0x180 }
  - { offsetInCU: 0x86323, offset: 0x86323, size: 0x8, addend: 0x0, symName: __ZN3mlc4base16ReflectionHelper13PrepareMethodIRFNSt3__112basic_stringIcNS3_11char_traitsIcEENS3_9allocatorIcEEEENS_7AnyViewEEEE13MLCTypeMethodPKcOT_, symObjAddr: 0x20C90, symBinAddr: 0x25A60, symSize: 0x140 }
  - { offsetInCU: 0x86AC3, offset: 0x86AC3, size: 0x8, addend: 0x0, symName: __ZN3mlc4base16ReflectionHelper16DefaultStrMethodENS_7AnyViewE, symObjAddr: 0x3440, symBinAddr: 0x8210, symSize: 0x280 }
  - { offsetInCU: 0x87166, offset: 0x87166, size: 0x8, addend: 0x0, symName: __ZN3mlc4base16ReflectionHelper13FieldReadOnlyI7MLCListxEERS1_PKcMT_T0_, symObjAddr: 0x39F0, symBinAddr: 0x87C0, symSize: 0x1D0 }
  - { offsetInCU: 0x87717, offset: 0x87717, size: 0x8, addend: 0x0, symName: __ZN3mlc4base16ReflectionHelper13FieldReadOnlyI7MLCListPvEERS1_PKcMT_T0_, symObjAddr: 0x3BC0, symBinAddr: 0x8990, symSize: 0x1D0 }
  - { offsetInCU: 0x87CC4, offset: 0x87CC4, size: 0x8, addend: 0x0, symName: __ZN3mlc4base16ReflectionHelper8StaticFnIPFviPKNS_7AnyViewEPNS_3AnyEEEERS1_PKcOT_, symObjAddr: 0x3D90, symBinAddr: 0x8B60, symSize: 0x180 }
  - { offsetInCU: 0x882BA, offset: 0x882BA, size: 0x8, addend: 0x0, symName: __ZN3mlc4base16ReflectionHelper5MemFnIMNS_8UListObjEKFNSt3__112basic_stringIcNS4_11char_traitsIcEENS4_9allocatorIcEEEEvEEERS1_PKcOT_, symObjAddr: 0x4210, symBinAddr: 0x8FE0, symSize: 0x180 }
  - { offsetInCU: 0x888B0, offset: 0x888B0, size: 0x8, addend: 0x0, symName: __ZN3mlc4base16ReflectionHelper5MemFnIPFNS_3AnyEPNS_8UListObjExEEERS1_PKcOT_, symObjAddr: 0x45D0, symBinAddr: 0x93A0, symSize: 0x180 }
  - { offsetInCU: 0x88F46, offset: 0x88F46, size: 0x8, addend: 0x0, symName: __ZZN3mlc4base16ReflectionHelper12PrepareFieldI7MLCListxEE12MLCTypeFieldPKcMT_T0_ENKUlvE_clEv, symObjAddr: 0x20E10, symBinAddr: 0x25BE0, symSize: 0x250 }
  - { offsetInCU: 0x896E8, offset: 0x896E8, size: 0x8, addend: 0x0, symName: __ZZN3mlc4base16ReflectionHelper12PrepareFieldI7MLCListPvEE12MLCTypeFieldPKcMT_T0_ENKUlvE_clEv, symObjAddr: 0x21060, symBinAddr: 0x25E30, symSize: 0x250 }
  - { offsetInCU: 0x89DE4, offset: 0x89DE4, size: 0x8, addend: 0x0, symName: __ZN3mlc4base16ReflectionHelper13PrepareMethodIPFviPKNS_7AnyViewEPNS_3AnyEEEE13MLCTypeMethodPKcOT_, symObjAddr: 0x21820, symBinAddr: 0x265F0, symSize: 0x140 }
  - { offsetInCU: 0x8A80C, offset: 0x8A80C, size: 0x8, addend: 0x0, symName: __ZN3mlc4core8ListBase3ffiINS_8UListObjEE3NewEiPKNS_7AnyViewEPNS_3AnyE, symObjAddr: 0x3F10, symBinAddr: 0x8CE0, symSize: 0x300 }
  - { offsetInCU: 0x8B135, offset: 0x8B135, size: 0x8, addend: 0x0, symName: __ZNSt3__16vectorIN3mlc3AnyENS_9allocatorIS2_EEEC1IPKNS1_7AnyViewELi0EEET_SA_, symObjAddr: 0x21340, symBinAddr: 0x26110, symSize: 0x110 }
  - { offsetInCU: 0x8B534, offset: 0x8B534, size: 0x8, addend: 0x0, symName: __ZN3mlc4core8ListBase14ListRangeCheckExxx, symObjAddr: 0x21600, symBinAddr: 0x263D0, symSize: 0x220 }
  - { offsetInCU: 0x8B809, offset: 0x8B809, size: 0x8, addend: 0x0, symName: __ZNSt3__16vectorIN3mlc3AnyENS_9allocatorIS2_EEED1B7v160006Ev, symObjAddr: 0x99B0, symBinAddr: 0xE780, symSize: 0x90 }
  - { offsetInCU: 0x8BA0E, offset: 0x8BA0E, size: 0x8, addend: 0x0, symName: __ZN3mlc3RefINS_8UListObjEED1Ev, symObjAddr: 0x20DD0, symBinAddr: 0x25BA0, symSize: 0x40 }
  - { offsetInCU: 0x8BABF, offset: 0x8BABF, size: 0x8, addend: 0x0, symName: __ZN3mlc4base16ReflectionHelper13PrepareMethodIMNS_8UListObjEKFNSt3__112basic_stringIcNS4_11char_traitsIcEENS4_9allocatorIcEEEEvEEE13MLCTypeMethodPKcOT_, symObjAddr: 0x21960, symBinAddr: 0x26730, symSize: 0x150 }
  - { offsetInCU: 0x8C0B3, offset: 0x8C0B3, size: 0x8, addend: 0x0, symName: __ZNK3mlc8UListObj7__str__Ev, symObjAddr: 0x4390, symBinAddr: 0x9160, symSize: 0x240 }
  - { offsetInCU: 0x8C6AB, offset: 0x8C6AB, size: 0x8, addend: 0x0, symName: __ZN3mlc4base16ReflectionHelper13PrepareMethodIPFNS_3AnyEPNS_8UListObjExEEE13MLCTypeMethodPKcOT_, symObjAddr: 0x22640, symBinAddr: 0x27410, symSize: 0x140 }
  - { offsetInCU: 0x8CCD8, offset: 0x8CCD8, size: 0x8, addend: 0x0, symName: __ZN3mlc4core8ListBase3ffiINS_8UListObjEE2AtEPS3_x, symObjAddr: 0x4750, symBinAddr: 0x9520, symSize: 0x30 }
  - { offsetInCU: 0x8CDD2, offset: 0x8CDD2, size: 0x8, addend: 0x0, symName: __ZN3mlc4base16ReflectionHelper5MemFnIPFNSt3__112basic_stringIcNS3_11char_traitsIcEENS3_9allocatorIcEEEEPvEEERS1_PKcOT_, symObjAddr: 0x4780, symBinAddr: 0x9550, symSize: 0x180 }
  - { offsetInCU: 0x8D3C2, offset: 0x8D3C2, size: 0x8, addend: 0x0, symName: __ZN3mlc4base16ReflectionHelper13PrepareMethodIPFNSt3__112basic_stringIcNS3_11char_traitsIcEENS3_9allocatorIcEEEEPvEEE13MLCTypeMethodPKcOT_, symObjAddr: 0x237B0, symBinAddr: 0x28580, symSize: 0x140 }
  - { offsetInCU: 0x8D9B8, offset: 0x8D9B8, size: 0x8, addend: 0x0, symName: __ZN3mlc4base9PODTraitsIPvvE7__str__ES2_, symObjAddr: 0x4900, symBinAddr: 0x96D0, symSize: 0x1A0 }
  - { offsetInCU: 0x8DE33, offset: 0x8DE33, size: 0x8, addend: 0x0, symName: __ZN3mlc4base16ReflectionHelper5MemFnIPFNSt3__112basic_stringIcNS3_11char_traitsIcEENS3_9allocatorIcEEEExEEERS1_PKcOT_, symObjAddr: 0x4AA0, symBinAddr: 0x9870, symSize: 0x180 }
  - { offsetInCU: 0x8E423, offset: 0x8E423, size: 0x8, addend: 0x0, symName: __ZN3mlc4base16ReflectionHelper13PrepareMethodIPFNSt3__112basic_stringIcNS3_11char_traitsIcEENS3_9allocatorIcEEEExEEE13MLCTypeMethodPKcOT_, symObjAddr: 0x241D0, symBinAddr: 0x28FA0, symSize: 0x140 }
  - { offsetInCU: 0x8EA19, offset: 0x8EA19, size: 0x8, addend: 0x0, symName: __ZN3mlc4base9PODTraitsIxvE7__str__Ex, symObjAddr: 0x4C20, symBinAddr: 0x99F0, symSize: 0x20 }
  - { offsetInCU: 0x8EA5F, offset: 0x8EA5F, size: 0x8, addend: 0x0, symName: __ZN3mlc4base16ReflectionHelper5MemFnIPFNSt3__112basic_stringIcNS3_11char_traitsIcEENS3_9allocatorIcEEEEdEEERS1_PKcOT_, symObjAddr: 0x4C40, symBinAddr: 0x9A10, symSize: 0x180 }
  - { offsetInCU: 0x8F04F, offset: 0x8F04F, size: 0x8, addend: 0x0, symName: __ZN3mlc4base16ReflectionHelper13PrepareMethodIPFNSt3__112basic_stringIcNS3_11char_traitsIcEENS3_9allocatorIcEEEEdEEE13MLCTypeMethodPKcOT_, symObjAddr: 0x24BD0, symBinAddr: 0x299A0, symSize: 0x140 }
  - { offsetInCU: 0x8F645, offset: 0x8F645, size: 0x8, addend: 0x0, symName: __ZN3mlc4base9PODTraitsIdvE7__str__Ed, symObjAddr: 0x4DC0, symBinAddr: 0x9B90, symSize: 0x20 }
  - { offsetInCU: 0x8F720, offset: 0x8F720, size: 0x8, addend: 0x0, symName: __ZNSt3__16vectorIN3mlc3AnyENS_9allocatorIS2_EEE21__push_back_slow_pathIS2_EEvOT_, symObjAddr: 0xC280, symBinAddr: 0x11050, symSize: 0x190 }
  - { offsetInCU: 0x8FCD1, offset: 0x8FCD1, size: 0x8, addend: 0x0, symName: __ZN3mlc4base16ReflectionHelper5MemFnIPFNSt3__112basic_stringIcNS3_11char_traitsIcEENS3_9allocatorIcEEEE8DLDeviceEEERS1_PKcOT_, symObjAddr: 0x4DE0, symBinAddr: 0x9BB0, symSize: 0x180 }
  - { offsetInCU: 0x902C1, offset: 0x902C1, size: 0x8, addend: 0x0, symName: __ZN3mlc4base16ReflectionHelper13PrepareMethodIPFNSt3__112basic_stringIcNS3_11char_traitsIcEENS3_9allocatorIcEEEE8DLDeviceEEE13MLCTypeMethodPKcOT_, symObjAddr: 0x25CA0, symBinAddr: 0x2AA70, symSize: 0x140 }
  - { offsetInCU: 0x908B7, offset: 0x908B7, size: 0x8, addend: 0x0, symName: __ZN3mlc4base9PODTraitsI8DLDevicevE7__str__ES2_, symObjAddr: 0x4F60, symBinAddr: 0x9D30, symSize: 0x1F0 }
  - { offsetInCU: 0x90C36, offset: 0x90C36, size: 0x8, addend: 0x0, symName: __ZN3mlc4base16ReflectionHelper5MemFnIPFNSt3__112basic_stringIcNS3_11char_traitsIcEENS3_9allocatorIcEEEE10DLDataTypeEEERS1_PKcOT_, symObjAddr: 0x5150, symBinAddr: 0x9F20, symSize: 0x180 }
  - { offsetInCU: 0x91226, offset: 0x91226, size: 0x8, addend: 0x0, symName: __ZN3mlc4base16ReflectionHelper13PrepareMethodIPFNSt3__112basic_stringIcNS3_11char_traitsIcEENS3_9allocatorIcEEEE10DLDataTypeEEE13MLCTypeMethodPKcOT_, symObjAddr: 0x26EE0, symBinAddr: 0x2BCB0, symSize: 0x140 }
  - { offsetInCU: 0x9181C, offset: 0x9181C, size: 0x8, addend: 0x0, symName: __ZN3mlc4base9PODTraitsI10DLDataTypevE7__str__ES2_, symObjAddr: 0x52D0, symBinAddr: 0xA0A0, symSize: 0x270 }
  - { offsetInCU: 0x91F7B, offset: 0x91F7B, size: 0x8, addend: 0x0, symName: __ZN3mlc4base16ReflectionHelper5MemFnIPFNSt3__112basic_stringIcNS3_11char_traitsIcEENS3_9allocatorIcEEEEPKcEEERS1_SB_OT_, symObjAddr: 0x5540, symBinAddr: 0xA310, symSize: 0x180 }
  - { offsetInCU: 0x9256B, offset: 0x9256B, size: 0x8, addend: 0x0, symName: __ZN3mlc4base16ReflectionHelper13PrepareMethodIPFNSt3__112basic_stringIcNS3_11char_traitsIcEENS3_9allocatorIcEEEEPKcEEE13MLCTypeMethodSB_OT_, symObjAddr: 0x27A80, symBinAddr: 0x2C850, symSize: 0x140 }
  - { offsetInCU: 0x92BEF, offset: 0x92BEF, size: 0x8, addend: 0x0, symName: __ZN3mlc4base9PODTraitsIPKcvE7__str__ES3_, symObjAddr: 0x56C0, symBinAddr: 0xA490, symSize: 0x150 }
  - { offsetInCU: 0x934E1, offset: 0x934E1, size: 0x8, addend: 0x0, symName: __ZN3mlc8registry9TypeTable3NewEv, symObjAddr: 0x5870, symBinAddr: 0xA640, symSize: 0x220 }
  - { offsetInCU: 0x94AB9, offset: 0x94AB9, size: 0x8, addend: 0x0, symName: __ZNSt3__16vectorINS_10unique_ptrIN3mlc8registry15TypeInfoWrapperENS_14default_deleteIS4_EEEENS_9allocatorIS7_EEE8__appendEm, symObjAddr: 0xD670, symBinAddr: 0x12440, symSize: 0x2F0 }
  - { offsetInCU: 0x9521A, offset: 0x9521A, size: 0x8, addend: 0x0, symName: __ZNSt3__112__hash_tableINS_17__hash_value_typeINS_12basic_stringIcNS_11char_traitsIcEENS_9allocatorIcEEEEP11MLCTypeInfoEENS_22__unordered_map_hasherIS7_SA_NS_4hashIS7_EENS_8equal_toIS7_EELb1EEENS_21__unordered_map_equalIS7_SA_SF_SD_Lb1EEENS5_ISA_EEE16__reserve_uniqueB7v160006Em, symObjAddr: 0xEF30, symBinAddr: 0x13D00, symSize: 0x1A0 }
  - { offsetInCU: 0x95358, offset: 0x95358, size: 0x8, addend: 0x0, symName: __ZN3mlc8registry9TypeTable12TypeRegisterEiiPKc, symObjAddr: 0x5DD0, symBinAddr: 0xABA0, symSize: 0x530 }
  - { offsetInCU: 0x96731, offset: 0x96731, size: 0x8, addend: 0x0, symName: __ZN3mlc3AnyD1Ev, symObjAddr: 0x5A90, symBinAddr: 0xA860, symSize: 0x40 }
  - { offsetInCU: 0x96822, offset: 0x96822, size: 0x8, addend: 0x0, symName: _MLCGetLastError, symObjAddr: 0x5AD0, symBinAddr: 0xA8A0, symSize: 0x70 }
  - { offsetInCU: 0x96F05, offset: 0x96F05, size: 0x8, addend: 0x0, symName: __ZNSt3__112__hash_tableINS_17__hash_value_typeINS_12basic_stringIcNS_11char_traitsIcEENS_9allocatorIcEEEEP11MLCTypeInfoEENS_22__unordered_map_hasherIS7_SA_NS_4hashIS7_EENS_8equal_toIS7_EELb1EEENS_21__unordered_map_equalIS7_SA_SF_SD_Lb1EEENS5_ISA_EEE4findIS7_EENS_15__hash_iteratorIPNS_11__hash_nodeISA_PvEEEERKT_, symObjAddr: 0x10970, symBinAddr: 0x15740, symSize: 0x240 }
  - { offsetInCU: 0x971EE, offset: 0x971EE, size: 0x8, addend: 0x0, symName: __ZN3mlc8registry15TypeInfoWrapper5ResetEv, symObjAddr: 0xD9B0, symBinAddr: 0x12780, symSize: 0x1C0 }
  - { offsetInCU: 0x97559, offset: 0x97559, size: 0x8, addend: 0x0, symName: __ZNSt3__112__hash_tableINS_17__hash_value_typeINS_12basic_stringIcNS_11char_traitsIcEENS_9allocatorIcEEEEP11MLCTypeInfoEENS_22__unordered_map_hasherIS7_SA_NS_4hashIS7_EENS_8equal_toIS7_EELb1EEENS_21__unordered_map_equalIS7_SA_SF_SD_Lb1EEENS5_ISA_EEE25__emplace_unique_key_argsIS7_JRKNS_21piecewise_construct_tENS_5tupleIJOS7_EEENSP_IJEEEEEENS_4pairINS_15__hash_iteratorIPNS_11__hash_nodeISA_PvEEEEbEERKT_DpOT0_, symObjAddr: 0x10BC0, symBinAddr: 0x15990, symSize: 0x580 }
  - { offsetInCU: 0x97E78, offset: 0x97E78, size: 0x8, addend: 0x0, symName: __ZN3mlc8registry9TypeTable8NewArrayIcEEPT_x, symObjAddr: 0x11180, symBinAddr: 0x15F50, symSize: 0xD0 }
  - { offsetInCU: 0x98157, offset: 0x98157, size: 0x8, addend: 0x0, symName: __ZN3mlc8registry9TypeTable8NewArrayIiEEPT_x, symObjAddr: 0x10230, symBinAddr: 0x15000, symSize: 0xD0 }
  - { offsetInCU: 0x98436, offset: 0x98436, size: 0x8, addend: 0x0, symName: __ZNKSt3__16vectorINS_10unique_ptrIN3mlc8registry15TypeInfoWrapperENS_14default_deleteIS4_EEEENS_9allocatorIS7_EEE20__throw_out_of_rangeB7v160006Ev, symObjAddr: 0x10BB0, symBinAddr: 0x15980, symSize: 0x10 }
  - { offsetInCU: 0x9845F, offset: 0x9845F, size: 0x8, addend: 0x0, symName: __ZNSt3__112__hash_tableINS_17__hash_value_typeINS_12basic_stringIcNS_11char_traitsIcEENS_9allocatorIcEEEEP11MLCTypeInfoEENS_22__unordered_map_hasherIS7_SA_NS_4hashIS7_EENS_8equal_toIS7_EELb1EEENS_21__unordered_map_equalIS7_SA_SF_SD_Lb1EEENS5_ISA_EEE25__emplace_unique_key_argsIS7_JRKNS_21piecewise_construct_tENS_5tupleIJOS7_EEENSP_IJEEEEEENS_4pairINS_15__hash_iteratorIPNS_11__hash_nodeISA_PvEEEEbEERKT_DpOT0_, symObjAddr: 0x10BC0, symBinAddr: 0x15990, symSize: 0x580 }
  - { offsetInCU: 0x9846A, offset: 0x9846A, size: 0x8, addend: 0x0, symName: __ZNSt3__110unique_ptrIN3mlc8registry15TypeInfoWrapperENS_14default_deleteIS3_EEED1B7v160006Ev, symObjAddr: 0xD970, symBinAddr: 0x12740, symSize: 0x40 }
  - { offsetInCU: 0x9852C, offset: 0x9852C, size: 0x8, addend: 0x0, symName: _MLCTypeKey2Info, symObjAddr: 0x65B0, symBinAddr: 0xB380, symSize: 0x280 }
  - { offsetInCU: 0x98A06, offset: 0x98A06, size: 0x8, addend: 0x0, symName: __ZN3mlc8registry9TypeTable11GetTypeInfoEPKc, symObjAddr: 0x6830, symBinAddr: 0xB600, symSize: 0xE0 }
  - { offsetInCU: 0x990F2, offset: 0x990F2, size: 0x8, addend: 0x0, symName: __ZN3mlc8registry9TypeTable17TypeDefReflectionEixP12MLCTypeFieldxP13MLCTypeMethod, symObjAddr: 0x6BA0, symBinAddr: 0xB970, symSize: 0x120 }
  - { offsetInCU: 0x992E6, offset: 0x992E6, size: 0x8, addend: 0x0, symName: __ZN3mlc8registry15TypeInfoWrapper9SetFieldsExP12MLCTypeField, symObjAddr: 0x11B40, symBinAddr: 0x16910, symSize: 0x220 }
  - { offsetInCU: 0x996EF, offset: 0x996EF, size: 0x8, addend: 0x0, symName: __ZN3mlc8registry15TypeInfoWrapper10SetMethodsExP13MLCTypeMethod, symObjAddr: 0x11D60, symBinAddr: 0x16B30, symSize: 0x310 }
  - { offsetInCU: 0x9A169, offset: 0x9A169, size: 0x8, addend: 0x0, symName: _MLCVTableSet, symObjAddr: 0x6CC0, symBinAddr: 0xBA90, symSize: 0x280 }
  - { offsetInCU: 0x9A660, offset: 0x9A660, size: 0x8, addend: 0x0, symName: __ZN3mlc8registry9TypeTable9SetVTableEiPKcPNS_7AnyViewE, symObjAddr: 0x6F40, symBinAddr: 0xBD10, symSize: 0x3A0 }
  - { offsetInCU: 0x9B543, offset: 0x9B543, size: 0x8, addend: 0x0, symName: __ZNSt3__112__hash_tableINS_17__hash_value_typeINS_12basic_stringIcNS_11char_traitsIcEENS_9allocatorIcEEEENS_13unordered_mapIiPN3mlc7FuncObjENS_4hashIiEENS_8equal_toIiEENS5_INS_4pairIKiSB_EEEEEEEENS_22__unordered_map_hasherIS7_SL_NSC_IS7_EENSE_IS7_EELb1EEENS_21__unordered_map_equalIS7_SL_SO_SN_Lb1EEENS5_ISL_EEE25__emplace_unique_key_argsIS7_JRKNS_21piecewise_construct_tENS_5tupleIJOS7_EEENSY_IJEEEEEENSG_INS_15__hash_iteratorIPNS_11__hash_nodeISL_PvEEEEbEERKT_DpOT0_, symObjAddr: 0x143D0, symBinAddr: 0x191A0, symSize: 0x590 }
  - { offsetInCU: 0x9BFDD, offset: 0x9BFDD, size: 0x8, addend: 0x0, symName: __ZNSt3__112__hash_tableINS_17__hash_value_typeIiPN3mlc7FuncObjEEENS_22__unordered_map_hasherIiS5_NS_4hashIiEENS_8equal_toIiEELb1EEENS_21__unordered_map_equalIiS5_SA_S8_Lb1EEENS_9allocatorIS5_EEE25__emplace_unique_key_argsIiJRKNS_21piecewise_construct_tENS_5tupleIJRKiEEENSL_IJODnEEEEEENS_4pairINS_15__hash_iteratorIPNS_11__hash_nodeIS5_PvEEEEbEERKT_DpOT0_, symObjAddr: 0x14C20, symBinAddr: 0x199F0, symSize: 0x420 }
  - { offsetInCU: 0x9C6CE, offset: 0x9C6CE, size: 0x8, addend: 0x0, symName: __ZN3mlc8registry9TypeTable9NewObjPtrINS_7FuncObjEEEvPPT_S5_, symObjAddr: 0x141D0, symBinAddr: 0x18FA0, symSize: 0x100 }
  - { offsetInCU: 0x9CA09, offset: 0x9CA09, size: 0x8, addend: 0x0, symName: __ZN3mlc4base8Type2StrIPNS_7FuncObjEE3RunEv, symObjAddr: 0x16390, symBinAddr: 0x1B160, symSize: 0xE0 }
  - { offsetInCU: 0x9D0D1, offset: 0x9D0D1, size: 0x8, addend: 0x0, symName: _MLCVTableGet, symObjAddr: 0x72E0, symBinAddr: 0xC0B0, symSize: 0x2D0 }
  - { offsetInCU: 0x9D73A, offset: 0x9D73A, size: 0x8, addend: 0x0, symName: __ZN3mlc8registry9TypeTable9GetVTableEiPKc, symObjAddr: 0x75B0, symBinAddr: 0xC380, symSize: 0x230 }
  - { offsetInCU: 0x9E137, offset: 0x9E137, size: 0x8, addend: 0x0, symName: __Z25MLCDynTypeTypeTableCreatePPv, symObjAddr: 0x77E0, symBinAddr: 0xC5B0, symSize: 0x220 }
  - { offsetInCU: 0x9E5DC, offset: 0x9E5DC, size: 0x8, addend: 0x0, symName: __Z26MLCDynTypeTypeTableDestroyPv, symObjAddr: 0x7A00, symBinAddr: 0xC7D0, symSize: 0x30 }
  - { offsetInCU: 0x9E633, offset: 0x9E633, size: 0x8, addend: 0x0, symName: __ZN3mlc8registry9TypeTableD2Ev, symObjAddr: 0x16470, symBinAddr: 0x1B240, symSize: 0x240 }
  - { offsetInCU: 0x9F97C, offset: 0x9F97C, size: 0x8, addend: 0x0, symName: _MLCAnyIncRef, symObjAddr: 0x7A30, symBinAddr: 0xC800, symSize: 0x20 }
  - { offsetInCU: 0x9F9EA, offset: 0x9F9EA, size: 0x8, addend: 0x0, symName: _MLCAnyDecRef, symObjAddr: 0x7A50, symBinAddr: 0xC820, symSize: 0x1B0 }
  - { offsetInCU: 0x9FDA4, offset: 0x9FDA4, size: 0x8, addend: 0x0, symName: _MLCAnyDecRef.cold.1, symObjAddr: 0x29AB0, symBinAddr: 0x55980, symSize: 0xD0 }
  - { offsetInCU: 0x9FF5A, offset: 0x9FF5A, size: 0x8, addend: 0x0, symName: _MLCAnyInplaceViewToOwned, symObjAddr: 0x7C20, symBinAddr: 0xC9F0, symSize: 0x2B0 }
  - { offsetInCU: 0xA05A4, offset: 0xA05A4, size: 0x8, addend: 0x0, symName: _MLCFuncSetGlobal, symObjAddr: 0x7ED0, symBinAddr: 0xCCA0, symSize: 0x290 }
  - { offsetInCU: 0xA0A9B, offset: 0xA0A9B, size: 0x8, addend: 0x0, symName: __ZN3mlc8registry9TypeTable7SetFuncEPKcNS_7AnyViewEb, symObjAddr: 0x8160, symBinAddr: 0xCF30, symSize: 0x400 }
  - { offsetInCU: 0xA1942, offset: 0xA1942, size: 0x8, addend: 0x0, symName: __ZNSt3__112__hash_tableINS_17__hash_value_typeINS_12basic_stringIcNS_11char_traitsIcEENS_9allocatorIcEEEEPN3mlc7FuncObjEEENS_22__unordered_map_hasherIS7_SB_NS_4hashIS7_EENS_8equal_toIS7_EELb1EEENS_21__unordered_map_equalIS7_SB_SG_SE_Lb1EEENS5_ISB_EEE25__emplace_unique_key_argsIS7_JRKNS_21piecewise_construct_tENS_5tupleIJOS7_EEENSQ_IJODnEEEEEENS_4pairINS_15__hash_iteratorIPNS_11__hash_nodeISB_PvEEEEbEERKT_DpOT0_, symObjAddr: 0x167E0, symBinAddr: 0x1B5B0, symSize: 0x580 }
  - { offsetInCU: 0xA2261, offset: 0xA2261, size: 0x8, addend: 0x0, symName: _MLCFuncGetGlobal, symObjAddr: 0x8560, symBinAddr: 0xD330, symSize: 0x2D0 }
  - { offsetInCU: 0xA28B5, offset: 0xA28B5, size: 0x8, addend: 0x0, symName: __ZN3mlc8registry9TypeTable7GetFuncEPKc, symObjAddr: 0x8830, symBinAddr: 0xD600, symSize: 0xE0 }
  - { offsetInCU: 0xA2FEB, offset: 0xA2FEB, size: 0x8, addend: 0x0, symName: __ZNSt3__112__hash_tableINS_17__hash_value_typeINS_12basic_stringIcNS_11char_traitsIcEENS_9allocatorIcEEEEPN3mlc7FuncObjEEENS_22__unordered_map_hasherIS7_SB_NS_4hashIS7_EENS_8equal_toIS7_EELb1EEENS_21__unordered_map_equalIS7_SB_SG_SE_Lb1EEENS5_ISB_EEE4findIS7_EENS_15__hash_iteratorIPNS_11__hash_nodeISB_PvEEEERKT_, symObjAddr: 0x16FE0, symBinAddr: 0x1BDB0, symSize: 0x240 }
  - { offsetInCU: 0xA32F5, offset: 0xA32F5, size: 0x8, addend: 0x0, symName: _MLCFuncSafeCall, symObjAddr: 0x8910, symBinAddr: 0xD6E0, symSize: 0xD0 }
  - { offsetInCU: 0xA3466, offset: 0xA3466, size: 0x8, addend: 0x0, symName: _MLCFuncCreate, symObjAddr: 0x8AA0, symBinAddr: 0xD870, symSize: 0x2A0 }
  - { offsetInCU: 0xA4024, offset: 0xA4024, size: 0x8, addend: 0x0, symName: __ZZN3mlc7FuncObj11FromForeignEPvPFvS1_EPFiPKviPK6MLCAnyPS6_EENUliS8_S9_E0_D1Ev, symObjAddr: 0x17220, symBinAddr: 0x1BFF0, symSize: 0x40 }
  - { offsetInCU: 0xA40E6, offset: 0xA40E6, size: 0x8, addend: 0x0, symName: __ZN3mlc3RefINS_7FuncObjEED1Ev, symObjAddr: 0x8E90, symBinAddr: 0xDC60, symSize: 0x40 }
  - { offsetInCU: 0xA435B, offset: 0xA435B, size: 0x8, addend: 0x0, symName: _MLCErrorCreate, symObjAddr: 0x8ED0, symBinAddr: 0xDCA0, symSize: 0x230 }
  - { offsetInCU: 0xA4960, offset: 0xA4960, size: 0x8, addend: 0x0, symName: _MLCErrorCreate.cold.1, symObjAddr: 0x29B80, symBinAddr: 0x55A50, symSize: 0xD0 }
  - { offsetInCU: 0xA4AF5, offset: 0xA4AF5, size: 0x8, addend: 0x0, symName: __ZN3mlc3RefINS_8ErrorObjEED1Ev, symObjAddr: 0x9100, symBinAddr: 0xDED0, symSize: 0x40 }
  - { offsetInCU: 0xA4C9A, offset: 0xA4C9A, size: 0x8, addend: 0x0, symName: __ZZNK3mlc7AnyView4CastINS_3RefINS_8ErrorObjEEEEET_NS_4base3tag6ObjPtrEENKUlvE_clEv, symObjAddr: 0x29870, symBinAddr: 0x2E640, symSize: 0x240 }
  - { offsetInCU: 0xA52EF, offset: 0xA52EF, size: 0x8, addend: 0x0, symName: __ZNK3mlc8ErrorObj7GetInfoEPNSt3__16vectorIPKcNS1_9allocatorIS4_EEEE, symObjAddr: 0x9460, symBinAddr: 0xE230, symSize: 0x250 }
  - { offsetInCU: 0xA59A5, offset: 0xA59A5, size: 0x8, addend: 0x0, symName: __ZNSt3__16vectorIPKcNS_9allocatorIS2_EEED1B7v160006Ev, symObjAddr: 0x9440, symBinAddr: 0xE210, symSize: 0x20 }
  - { offsetInCU: 0xA5EA1, offset: 0xA5EA1, size: 0x8, addend: 0x0, symName: __ZNKSt3__16vectorIPKcNS_9allocatorIS2_EEE20__throw_length_errorB7v160006Ev, symObjAddr: 0x177B0, symBinAddr: 0x1C580, symSize: 0x10 }
  - { offsetInCU: 0xA5ECA, offset: 0xA5ECA, size: 0x8, addend: 0x0, symName: __ZNSt3__112__hash_tableINS_17__hash_value_typeINS_12basic_stringIcNS_11char_traitsIcEENS_9allocatorIcEEEE12DLDeviceTypeEENS_22__unordered_map_hasherIS7_S9_NS_4hashIS7_EENS_8equal_toIS7_EELb1EEENS_21__unordered_map_equalIS7_S9_SE_SC_Lb1EEENS5_IS9_EEE25__emplace_unique_key_argsIS7_JRKNS_4pairIKS7_S8_EEEEENSL_INS_15__hash_iteratorIPNS_11__hash_nodeIS9_PvEEEEbEERKT_DpOT0_, symObjAddr: 0x177C0, symBinAddr: 0x1C590, symSize: 0x570 }
  - { offsetInCU: 0xA5ED5, offset: 0xA5ED5, size: 0x8, addend: 0x0, symName: _MLCExtObjCreate, symObjAddr: 0x96B0, symBinAddr: 0xE480, symSize: 0x50 }
  - { offsetInCU: 0xA5F2C, offset: 0xA5F2C, size: 0x8, addend: 0x0, symName: _MLCExtObjDelete, symObjAddr: 0x9700, symBinAddr: 0xE4D0, symSize: 0xF0 }
  - { offsetInCU: 0xA6097, offset: 0xA6097, size: 0x8, addend: 0x0, symName: _MLCExtObjDelete.cold.1, symObjAddr: 0x29C50, symBinAddr: 0x55B20, symSize: 0x40 }
  - { offsetInCU: 0xA60EE, offset: 0xA60EE, size: 0x8, addend: 0x0, symName: __ZN3mlc9ExceptionD1Ev, symObjAddr: 0x97F0, symBinAddr: 0xE5C0, symSize: 0x50 }
  - { offsetInCU: 0xA61EF, offset: 0xA61EF, size: 0x8, addend: 0x0, symName: __ZN3mlc9ExceptionD0Ev, symObjAddr: 0x9840, symBinAddr: 0xE610, symSize: 0x60 }
  - { offsetInCU: 0xA664A, offset: 0xA664A, size: 0x8, addend: 0x0, symName: __ZNSt3__119basic_ostringstreamIcNS_11char_traitsIcEENS_9allocatorIcEEED0Ev, symObjAddr: 0x9B90, symBinAddr: 0xE960, symSize: 0x80 }
  - { offsetInCU: 0xA67F4, offset: 0xA67F4, size: 0x8, addend: 0x0, symName: __ZTv0_n24_NSt3__119basic_ostringstreamIcNS_11char_traitsIcEENS_9allocatorIcEEED1Ev, symObjAddr: 0x9C10, symBinAddr: 0xE9E0, symSize: 0x90 }
  - { offsetInCU: 0xA69AD, offset: 0xA69AD, size: 0x8, addend: 0x0, symName: __ZTv0_n24_NSt3__119basic_ostringstreamIcNS_11char_traitsIcEENS_9allocatorIcEEED0Ev, symObjAddr: 0x9CA0, symBinAddr: 0xEA70, symSize: 0xA0 }
  - { offsetInCU: 0xA6B66, offset: 0xA6B66, size: 0x8, addend: 0x0, symName: __ZNSt3__115basic_stringbufIcNS_11char_traitsIcEENS_9allocatorIcEEED1Ev, symObjAddr: 0x9D40, symBinAddr: 0xEB10, symSize: 0x40 }
  - { offsetInCU: 0xA6CBA, offset: 0xA6CBA, size: 0x8, addend: 0x0, symName: __ZNSt3__115basic_stringbufIcNS_11char_traitsIcEENS_9allocatorIcEEED0Ev, symObjAddr: 0x9D80, symBinAddr: 0xEB50, symSize: 0x40 }
  - { offsetInCU: 0xA6ED8, offset: 0xA6ED8, size: 0x8, addend: 0x0, symName: __ZNSt3__115basic_stringbufIcNS_11char_traitsIcEENS_9allocatorIcEEE7seekoffExNS_8ios_base7seekdirEj, symObjAddr: 0x9DC0, symBinAddr: 0xEB90, symSize: 0x120 }
  - { offsetInCU: 0xA7071, offset: 0xA7071, size: 0x8, addend: 0x0, symName: __ZNSt3__115basic_stringbufIcNS_11char_traitsIcEENS_9allocatorIcEEE7seekposENS_4fposI11__mbstate_tEEj, symObjAddr: 0x9EE0, symBinAddr: 0xECB0, symSize: 0x30 }
  - { offsetInCU: 0xA7113, offset: 0xA7113, size: 0x8, addend: 0x0, symName: __ZNSt3__115basic_stringbufIcNS_11char_traitsIcEENS_9allocatorIcEEE9underflowEv, symObjAddr: 0x9F10, symBinAddr: 0xECE0, symSize: 0x50 }
  - { offsetInCU: 0xA71D3, offset: 0xA71D3, size: 0x8, addend: 0x0, symName: __ZNSt3__115basic_stringbufIcNS_11char_traitsIcEENS_9allocatorIcEEE9pbackfailEi, symObjAddr: 0x9F60, symBinAddr: 0xED30, symSize: 0x60 }
  - { offsetInCU: 0xA7462, offset: 0xA7462, size: 0x8, addend: 0x0, symName: __ZNSt3__115basic_stringbufIcNS_11char_traitsIcEENS_9allocatorIcEEE8overflowEi, symObjAddr: 0x9FC0, symBinAddr: 0xED90, symSize: 0x150 }
  - { offsetInCU: 0xA7B3D, offset: 0xA7B3D, size: 0x8, addend: 0x0, symName: __ZNSt12length_errorC1B7v160006EPKc, symObjAddr: 0xA410, symBinAddr: 0xF1E0, symSize: 0x30 }
  - { offsetInCU: 0xA7F8D, offset: 0xA7F8D, size: 0x8, addend: 0x0, symName: __ZZNK3mlc3Any4CastINS_3RefINS_6StrObjEEEEET_NS_4base3tag6ObjPtrEENKUlvE_clEv, symObjAddr: 0xB3E0, symBinAddr: 0x101B0, symSize: 0x2B0 }
  - { offsetInCU: 0xA86BB, offset: 0xA86BB, size: 0x8, addend: 0x0, symName: __ZN3mlc3RefINS_6StrObjEED1Ev, symObjAddr: 0xB2B0, symBinAddr: 0x10080, symSize: 0x40 }
  - { offsetInCU: 0xA87B1, offset: 0xA87B1, size: 0x8, addend: 0x0, symName: __ZZNK3mlc3Any4CastINS_3RefINS_8ErrorObjEEEEET_NS_4base3tag6ObjPtrEENKUlvE_clEv, symObjAddr: 0xB7F0, symBinAddr: 0x105C0, symSize: 0x240 }
  - { offsetInCU: 0xA8E06, offset: 0xA8E06, size: 0x8, addend: 0x0, symName: __ZNK3mlc8ErrorObj10AppendWithE12MLCByteArray, symObjAddr: 0xB2F0, symBinAddr: 0x100C0, symSize: 0xF0 }
  - { offsetInCU: 0xA90E0, offset: 0xA90E0, size: 0x8, addend: 0x0, symName: __ZN3mlc4base12ErrorBuilderD2Ev, symObjAddr: 0xAF30, symBinAddr: 0xFD00, symSize: 0xE0 }
  - { offsetInCU: 0xA95AE, offset: 0xA95AE, size: 0x8, addend: 0x0, symName: __ZN3mlc4base22DefaultObjectAllocatorINS_8ErrorObjEvE7DeleterEPv, symObjAddr: 0xB120, symBinAddr: 0xFEF0, symSize: 0x20 }
  - { offsetInCU: 0xA95DD, offset: 0xA95DD, size: 0x8, addend: 0x0, symName: __ZN3mlc7FuncObj12SafeCallImplEPKS0_iPKNS_7AnyViewEPNS_3AnyE, symObjAddr: 0xB140, symBinAddr: 0xFF10, symSize: 0x170 }
  - { offsetInCU: 0xA9A84, offset: 0xA9A84, size: 0x8, addend: 0x0, symName: __ZN3mlc4base8Type2StrIPNS_6StrObjEE3RunEv, symObjAddr: 0xB6C0, symBinAddr: 0x10490, symSize: 0xE0 }
  - { offsetInCU: 0xAA0B9, offset: 0xAA0B9, size: 0x8, addend: 0x0, symName: __ZN3mlc4base22DefaultObjectAllocatorINS_4core6StrPadEvE7DeleterEPv, symObjAddr: 0xB7A0, symBinAddr: 0x10570, symSize: 0x20 }
  - { offsetInCU: 0xAA104, offset: 0xAA104, size: 0x8, addend: 0x0, symName: __ZN3mlc4base18TemporaryTypeErrorD1Ev, symObjAddr: 0xB7C0, symBinAddr: 0x10590, symSize: 0x10 }
  - { offsetInCU: 0xAA15C, offset: 0xAA15C, size: 0x8, addend: 0x0, symName: __ZN3mlc4base18TemporaryTypeErrorD0Ev, symObjAddr: 0xB7D0, symBinAddr: 0x105A0, symSize: 0x20 }
  - { offsetInCU: 0xAA1C1, offset: 0xAA1C1, size: 0x8, addend: 0x0, symName: __ZN3mlc4base8Type2StrIPNS_8ErrorObjEE3RunEv, symObjAddr: 0xBA30, symBinAddr: 0x10800, symSize: 0xE0 }
  - { offsetInCU: 0xAA7CA, offset: 0xAA7CA, size: 0x8, addend: 0x0, symName: __ZN3mlc4base16ReflectionHelper13PrepareMethodIPFNSt3__112basic_stringIcNS3_11char_traitsIcEENS3_9allocatorIcEEEENS_7AnyViewEEEE13MLCTypeMethodPKcOT_, symObjAddr: 0xBC90, symBinAddr: 0x10A60, symSize: 0x140 }
  - { offsetInCU: 0xAB1A2, offset: 0xAB1A2, size: 0x8, addend: 0x0, symName: __ZN3mlc4core8Func2StrINSt3__112basic_stringIcNS2_11char_traitsIcEENS2_9allocatorIcEEEEJNS_7AnyViewEEE3RunIJLm0EEEES8_NS2_16integer_sequenceImJXspT_EEEE, symObjAddr: 0xC010, symBinAddr: 0x10DE0, symSize: 0x1F0 }
  - { offsetInCU: 0xAB954, offset: 0xAB954, size: 0x8, addend: 0x0, symName: __ZN3mlc4base22DefaultObjectAllocatorINS_4core8FuncImplIPFNSt3__112basic_stringIcNS4_11char_traitsIcEENS4_9allocatorIcEEEENS_7AnyViewEEEEvE7DeleterEPv, symObjAddr: 0xBFF0, symBinAddr: 0x10DC0, symSize: 0x20 }
  - { offsetInCU: 0xAB98A, offset: 0xAB98A, size: 0x8, addend: 0x0, symName: __ZN3mlc4core8Func2StrINSt3__112basic_stringIcNS2_11char_traitsIcEENS2_9allocatorIcEEEEJNS_7AnyViewEEE5ApplyILm0EEEvRNS2_13basic_ostreamIcS5_EE, symObjAddr: 0xC200, symBinAddr: 0x10FD0, symSize: 0x80 }
  - { offsetInCU: 0xAC0E8, offset: 0xAC0E8, size: 0x8, addend: 0x0, symName: __ZNKSt3__16vectorIN3mlc3AnyENS_9allocatorIS2_EEE20__throw_length_errorB7v160006Ev, symObjAddr: 0xC410, symBinAddr: 0x111E0, symSize: 0x10 }
  - { offsetInCU: 0xAC111, offset: 0xAC111, size: 0x8, addend: 0x0, symName: __ZNKSt3__16vectorI13MLCTypeMethodNS_9allocatorIS1_EEE20__throw_length_errorB7v160006Ev, symObjAddr: 0xC420, symBinAddr: 0x111F0, symSize: 0x10 }
  - { offsetInCU: 0xAC11C, offset: 0xAC11C, size: 0x8, addend: 0x0, symName: __ZN3mlc8registry15PODGetterSetterIDnE6SetterEP12MLCTypeFieldPvP6MLCAny, symObjAddr: 0xC450, symBinAddr: 0x11220, symSize: 0x10 }
  - { offsetInCU: 0xAC172, offset: 0xAC172, size: 0x8, addend: 0x0, symName: __ZN3mlc8registry15PODGetterSetterIDnE6GetterEP12MLCTypeFieldPvP6MLCAny, symObjAddr: 0xC460, symBinAddr: 0x11230, symSize: 0x1A0 }
  - { offsetInCU: 0xAC616, offset: 0xAC616, size: 0x8, addend: 0x0, symName: __ZN3mlc8registry15PODGetterSetterIxE6SetterEP12MLCTypeFieldPvP6MLCAny, symObjAddr: 0xC600, symBinAddr: 0x113D0, symSize: 0x220 }
  - { offsetInCU: 0xACD56, offset: 0xACD56, size: 0x8, addend: 0x0, symName: __ZN3mlc8registry15PODGetterSetterIxE6GetterEP12MLCTypeFieldPvP6MLCAny, symObjAddr: 0xC820, symBinAddr: 0x115F0, symSize: 0x20 }
  - { offsetInCU: 0xACDD7, offset: 0xACDD7, size: 0x8, addend: 0x0, symName: __ZN3mlc8registry15PODGetterSetterIdE6SetterEP12MLCTypeFieldPvP6MLCAny, symObjAddr: 0xC840, symBinAddr: 0x11610, symSize: 0x240 }
  - { offsetInCU: 0xAD520, offset: 0xAD520, size: 0x8, addend: 0x0, symName: __ZN3mlc8registry15PODGetterSetterIdE6GetterEP12MLCTypeFieldPvP6MLCAny, symObjAddr: 0xCA80, symBinAddr: 0x11850, symSize: 0x20 }
  - { offsetInCU: 0xAD5A1, offset: 0xAD5A1, size: 0x8, addend: 0x0, symName: __ZN3mlc8registry15PODGetterSetterIPvE6SetterEP12MLCTypeFieldS2_P6MLCAny, symObjAddr: 0xCAA0, symBinAddr: 0x11870, symSize: 0x230 }
  - { offsetInCU: 0xADCEA, offset: 0xADCEA, size: 0x8, addend: 0x0, symName: __ZN3mlc8registry15PODGetterSetterIPvE6GetterEP12MLCTypeFieldS2_P6MLCAny, symObjAddr: 0xCCD0, symBinAddr: 0x11AA0, symSize: 0x20 }
  - { offsetInCU: 0xADD6B, offset: 0xADD6B, size: 0x8, addend: 0x0, symName: __ZN3mlc8registry15PODGetterSetterI8DLDeviceE6SetterEP12MLCTypeFieldPvP6MLCAny, symObjAddr: 0xCCF0, symBinAddr: 0x11AC0, symSize: 0x370 }
  - { offsetInCU: 0xAECC1, offset: 0xAECC1, size: 0x8, addend: 0x0, symName: __ZN3mlc8registry15PODGetterSetterI8DLDeviceE6GetterEP12MLCTypeFieldPvP6MLCAny, symObjAddr: 0xD060, symBinAddr: 0x11E30, symSize: 0x20 }
  - { offsetInCU: 0xAED42, offset: 0xAED42, size: 0x8, addend: 0x0, symName: __ZN3mlc8registry15PODGetterSetterI10DLDataTypeE6SetterEP12MLCTypeFieldPvP6MLCAny, symObjAddr: 0xD080, symBinAddr: 0x11E50, symSize: 0x370 }
  - { offsetInCU: 0xAFC98, offset: 0xAFC98, size: 0x8, addend: 0x0, symName: __ZN3mlc8registry15PODGetterSetterI10DLDataTypeE6GetterEP12MLCTypeFieldPvP6MLCAny, symObjAddr: 0xD3F0, symBinAddr: 0x121C0, symSize: 0x20 }
  - { offsetInCU: 0xAFCFB, offset: 0xAFCFB, size: 0x8, addend: 0x0, symName: __ZN3mlc8registry15PODGetterSetterIPKcE6SetterEP12MLCTypeFieldPvP6MLCAny, symObjAddr: 0xD410, symBinAddr: 0x121E0, symSize: 0x240 }
  - { offsetInCU: 0xB0444, offset: 0xB0444, size: 0x8, addend: 0x0, symName: __ZN3mlc8registry15PODGetterSetterIPKcE6GetterEP12MLCTypeFieldPvP6MLCAny, symObjAddr: 0xD650, symBinAddr: 0x12420, symSize: 0x20 }
  - { offsetInCU: 0xB0ACA, offset: 0xB0ACA, size: 0x8, addend: 0x0, symName: __ZNKSt3__16vectorINS_10unique_ptrIN3mlc8registry15TypeInfoWrapperENS_14default_deleteIS4_EEEENS_9allocatorIS7_EEE20__throw_length_errorB7v160006Ev, symObjAddr: 0xD960, symBinAddr: 0x12730, symSize: 0x10 }
  - { offsetInCU: 0xB0AF3, offset: 0xB0AF3, size: 0x8, addend: 0x0, symName: __ZNSt3__110unique_ptrIN3mlc8registry15TypeInfoWrapperENS_14default_deleteIS3_EEED1B7v160006Ev, symObjAddr: 0xD970, symBinAddr: 0x12740, symSize: 0x40 }
  - { offsetInCU: 0xB0C4D, offset: 0xB0C4D, size: 0x8, addend: 0x0, symName: __ZNSt3__112__hash_tableINS_17__hash_value_typeIPKvNS_10unique_ptrIvPFvPvEEEEENS_22__unordered_map_hasherIS3_S9_NS_4hashIS3_EENS_8equal_toIS3_EELb1EEENS_21__unordered_map_equalIS3_S9_SE_SC_Lb1EEENS_9allocatorIS9_EEE14__erase_uniqueIS3_EEmRKT_, symObjAddr: 0xDB70, symBinAddr: 0x12940, symSize: 0x1D0 }
  - { offsetInCU: 0xB1044, offset: 0xB1044, size: 0x8, addend: 0x0, symName: __ZNSt3__112__hash_tableINS_17__hash_value_typeIPKvNS_10unique_ptrI6MLCAnyPFvPS5_EEEEENS_22__unordered_map_hasherIS3_SA_NS_4hashIS3_EENS_8equal_toIS3_EELb1EEENS_21__unordered_map_equalIS3_SA_SF_SD_Lb1EEENS_9allocatorISA_EEE14__erase_uniqueIS3_EEmRKT_, symObjAddr: 0xE430, symBinAddr: 0x13200, symSize: 0x1D0 }
  - { offsetInCU: 0xB1708, offset: 0xB1708, size: 0x8, addend: 0x0, symName: __ZNSt3__112__hash_tableINS_17__hash_value_typeIPKvNS_10unique_ptrIvPFvPvEEEEENS_22__unordered_map_hasherIS3_S9_NS_4hashIS3_EENS_8equal_toIS3_EELb1EEENS_21__unordered_map_equalIS3_S9_SE_SC_Lb1EEENS_9allocatorIS9_EEE6removeENS_21__hash_const_iteratorIPNS_11__hash_nodeIS9_S5_EEEE, symObjAddr: 0xE1F0, symBinAddr: 0x12FC0, symSize: 0x1F0 }
  - { offsetInCU: 0xB1C34, offset: 0xB1C34, size: 0x8, addend: 0x0, symName: __ZNSt3__121__murmur2_or_cityhashImLm64EEclEPKvm, symObjAddr: 0xDD40, symBinAddr: 0x12B10, symSize: 0x4B0 }
  - { offsetInCU: 0xB27FA, offset: 0xB27FA, size: 0x8, addend: 0x0, symName: __ZNSt3__110unique_ptrINS_11__hash_nodeINS_17__hash_value_typeIPKvNS0_IvPFvPvEEEEES5_EENS_22__hash_node_destructorINS_9allocatorISA_EEEEED1B7v160006Ev, symObjAddr: 0xE3E0, symBinAddr: 0x131B0, symSize: 0x50 }
  - { offsetInCU: 0xB2CE4, offset: 0xB2CE4, size: 0x8, addend: 0x0, symName: __ZNSt3__112__hash_tableINS_17__hash_value_typeIPKvNS_10unique_ptrI6MLCAnyPFvPS5_EEEEENS_22__unordered_map_hasherIS3_SA_NS_4hashIS3_EENS_8equal_toIS3_EELb1EEENS_21__unordered_map_equalIS3_SA_SF_SD_Lb1EEENS_9allocatorISA_EEE6removeENS_21__hash_const_iteratorIPNS_11__hash_nodeISA_PvEEEE, symObjAddr: 0xE600, symBinAddr: 0x133D0, symSize: 0x1F0 }
  - { offsetInCU: 0xB3106, offset: 0xB3106, size: 0x8, addend: 0x0, symName: __ZNSt3__110unique_ptrINS_11__hash_nodeINS_17__hash_value_typeIPKvNS0_I6MLCAnyPFvPS5_EEEEEPvEENS_22__hash_node_destructorINS_9allocatorISC_EEEEED1B7v160006Ev, symObjAddr: 0xE7F0, symBinAddr: 0x135C0, symSize: 0x50 }
  - { offsetInCU: 0xB342D, offset: 0xB342D, size: 0x8, addend: 0x0, symName: __ZNSt3__112__hash_tableINS_17__hash_value_typeIPKvNS_10unique_ptrI6MLCAnyPFvPS5_EEEEENS_22__unordered_map_hasherIS3_SA_NS_4hashIS3_EENS_8equal_toIS3_EELb1EEENS_21__unordered_map_equalIS3_SA_SF_SD_Lb1EEENS_9allocatorISA_EEE20__node_insert_uniqueEPNS_11__hash_nodeISA_PvEE, symObjAddr: 0xE840, symBinAddr: 0x13610, symSize: 0x180 }
  - { offsetInCU: 0xB3712, offset: 0xB3712, size: 0x8, addend: 0x0, symName: __ZNSt3__112__hash_tableINS_17__hash_value_typeIPKvNS_10unique_ptrI6MLCAnyPFvPS5_EEEEENS_22__unordered_map_hasherIS3_SA_NS_4hashIS3_EENS_8equal_toIS3_EELb1EEENS_21__unordered_map_equalIS3_SA_SF_SD_Lb1EEENS_9allocatorISA_EEE28__node_insert_unique_prepareB7v160006EmRSA_, symObjAddr: 0xE9C0, symBinAddr: 0x13790, symSize: 0x330 }
  - { offsetInCU: 0xB3A61, offset: 0xB3A61, size: 0x8, addend: 0x0, symName: __ZNSt3__112__hash_tableINS_17__hash_value_typeIPKvNS_10unique_ptrI6MLCAnyPFvPS5_EEEEENS_22__unordered_map_hasherIS3_SA_NS_4hashIS3_EENS_8equal_toIS3_EELb1EEENS_21__unordered_map_equalIS3_SA_SF_SD_Lb1EEENS_9allocatorISA_EEE11__do_rehashILb1EEEvm, symObjAddr: 0xECF0, symBinAddr: 0x13AC0, symSize: 0x240 }
  - { offsetInCU: 0xB4085, offset: 0xB4085, size: 0x8, addend: 0x0, symName: __ZNSt3__112__hash_tableINS_17__hash_value_typeINS_12basic_stringIcNS_11char_traitsIcEENS_9allocatorIcEEEEP11MLCTypeInfoEENS_22__unordered_map_hasherIS7_SA_NS_4hashIS7_EENS_8equal_toIS7_EELb1EEENS_21__unordered_map_equalIS7_SA_SF_SD_Lb1EEENS5_ISA_EEE11__do_rehashILb1EEEvm, symObjAddr: 0xF0D0, symBinAddr: 0x13EA0, symSize: 0x240 }
  - { offsetInCU: 0xB477B, offset: 0xB477B, size: 0x8, addend: 0x0, symName: __ZNSt3__112__hash_tableINS_17__hash_value_typeINS_12basic_stringIcNS_11char_traitsIcEENS_9allocatorIcEEEE12DLDeviceTypeEENS_22__unordered_map_hasherIS7_S9_NS_4hashIS7_EENS_8equal_toIS7_EELb1EEENS_21__unordered_map_equalIS7_S9_SE_SC_Lb1EEENS5_IS9_EEE4findIS7_EENS_15__hash_iteratorIPNS_11__hash_nodeIS9_PvEEEERKT_, symObjAddr: 0xF690, symBinAddr: 0x14460, symSize: 0x240 }
  - { offsetInCU: 0xB4A6A, offset: 0xB4A6A, size: 0x8, addend: 0x0, symName: __ZNSt12out_of_rangeC1B7v160006EPKc, symObjAddr: 0xF8D0, symBinAddr: 0x146A0, symSize: 0x30 }
  - { offsetInCU: 0xB4D9C, offset: 0xB4D9C, size: 0x8, addend: 0x0, symName: __ZNSt3__112__hash_tableINS_17__hash_value_typeINS_12basic_stringIcNS_11char_traitsIcEENS_9allocatorIcEEEE10DLDataTypeEENS_22__unordered_map_hasherIS7_S9_NS_4hashIS7_EENS_8equal_toIS7_EELb1EEENS_21__unordered_map_equalIS7_S9_SE_SC_Lb1EEENS5_IS9_EEE4findIS7_EENS_15__hash_iteratorIPNS_11__hash_nodeIS9_PvEEEERKT_, symObjAddr: 0xFFF0, symBinAddr: 0x14DC0, symSize: 0x240 }
  - { offsetInCU: 0xB5359, offset: 0xB5359, size: 0x8, addend: 0x0, symName: __ZNSt3__112__hash_tableINS_17__hash_value_typeIPKvNS_10unique_ptrIvPFvPvEEEEENS_22__unordered_map_hasherIS3_S9_NS_4hashIS3_EENS_8equal_toIS3_EELb1EEENS_21__unordered_map_equalIS3_S9_SE_SC_Lb1EEENS_9allocatorIS9_EEE21__emplace_unique_implIJRPiS8_EEENS_4pairINS_15__hash_iteratorIPNS_11__hash_nodeIS9_S5_EEEEbEEDpOT_, symObjAddr: 0x11A40, symBinAddr: 0x16810, symSize: 0x100 }
  - { offsetInCU: 0xB5EE7, offset: 0xB5EE7, size: 0x8, addend: 0x0, symName: __ZNSt3__110unique_ptrINS_11__hash_nodeINS_17__hash_value_typeINS_12basic_stringIcNS_11char_traitsIcEENS_9allocatorIcEEEEP11MLCTypeInfoEEPvEENS_22__hash_node_destructorINS6_ISD_EEEEED1B7v160006Ev, symObjAddr: 0x11140, symBinAddr: 0x15F10, symSize: 0x40 }
  - { offsetInCU: 0xB6360, offset: 0xB6360, size: 0x8, addend: 0x0, symName: __ZNSt3__112__hash_tableINS_17__hash_value_typeIPKvNS_10unique_ptrIvPFvPvEEEEENS_22__unordered_map_hasherIS3_S9_NS_4hashIS3_EENS_8equal_toIS3_EELb1EEENS_21__unordered_map_equalIS3_S9_SE_SC_Lb1EEENS_9allocatorIS9_EEE21__emplace_unique_implIJRPcS8_EEENS_4pairINS_15__hash_iteratorIPNS_11__hash_nodeIS9_S5_EEEEbEEDpOT_, symObjAddr: 0x11250, symBinAddr: 0x16020, symSize: 0x100 }
  - { offsetInCU: 0xB6D3F, offset: 0xB6D3F, size: 0x8, addend: 0x0, symName: __ZNSt3__112__hash_tableINS_17__hash_value_typeIPKvNS_10unique_ptrIvPFvPvEEEEENS_22__unordered_map_hasherIS3_S9_NS_4hashIS3_EENS_8equal_toIS3_EELb1EEENS_21__unordered_map_equalIS3_S9_SE_SC_Lb1EEENS_9allocatorIS9_EEE20__node_insert_uniqueEPNS_11__hash_nodeIS9_S5_EE, symObjAddr: 0x11350, symBinAddr: 0x16120, symSize: 0x180 }
  - { offsetInCU: 0xB706C, offset: 0xB706C, size: 0x8, addend: 0x0, symName: __ZNSt3__112__hash_tableINS_17__hash_value_typeIPKvNS_10unique_ptrIvPFvPvEEEEENS_22__unordered_map_hasherIS3_S9_NS_4hashIS3_EENS_8equal_toIS3_EELb1EEENS_21__unordered_map_equalIS3_S9_SE_SC_Lb1EEENS_9allocatorIS9_EEE28__node_insert_unique_prepareB7v160006EmRS9_, symObjAddr: 0x114D0, symBinAddr: 0x162A0, symSize: 0x330 }
  - { offsetInCU: 0xB739D, offset: 0xB739D, size: 0x8, addend: 0x0, symName: __ZNSt3__112__hash_tableINS_17__hash_value_typeIPKvNS_10unique_ptrIvPFvPvEEEEENS_22__unordered_map_hasherIS3_S9_NS_4hashIS3_EENS_8equal_toIS3_EELb1EEENS_21__unordered_map_equalIS3_S9_SE_SC_Lb1EEENS_9allocatorIS9_EEE11__do_rehashILb1EEEvm, symObjAddr: 0x11800, symBinAddr: 0x165D0, symSize: 0x240 }
  - { offsetInCU: 0xB7B2A, offset: 0xB7B2A, size: 0x8, addend: 0x0, symName: __ZN3mlc8registry9TypeTable8NewArrayI12MLCTypeFieldEEPT_x, symObjAddr: 0x12070, symBinAddr: 0x16E40, symSize: 0xD0 }
  - { offsetInCU: 0xB7E09, offset: 0xB7E09, size: 0x8, addend: 0x0, symName: __ZN3mlc8registry9TypeTable8NewArrayIPvEEPT_x, symObjAddr: 0x12140, symBinAddr: 0x16F10, symSize: 0xD0 }
  - { offsetInCU: 0xB80EE, offset: 0xB80EE, size: 0x8, addend: 0x0, symName: __ZN3mlc8registry9TypeTable8NewArrayI13MLCTypeMethodEEPT_x, symObjAddr: 0x14100, symBinAddr: 0x18ED0, symSize: 0xD0 }
  - { offsetInCU: 0xB8449, offset: 0xB8449, size: 0x8, addend: 0x0, symName: __ZNSt3__112__hash_tableINS_17__hash_value_typeIPKvNS_10unique_ptrIvPFvPvEEEEENS_22__unordered_map_hasherIS3_S9_NS_4hashIS3_EENS_8equal_toIS3_EELb1EEENS_21__unordered_map_equalIS3_S9_SE_SC_Lb1EEENS_9allocatorIS9_EEE21__emplace_unique_implIJRP12MLCTypeFieldS8_EEENS_4pairINS_15__hash_iteratorIPNS_11__hash_nodeIS9_S5_EEEEbEEDpOT_, symObjAddr: 0x12210, symBinAddr: 0x16FE0, symSize: 0x100 }
  - { offsetInCU: 0xB8B7C, offset: 0xB8B7C, size: 0x8, addend: 0x0, symName: __ZNSt3__112__hash_tableINS_17__hash_value_typeIPKvNS_10unique_ptrIvPFvPvEEEEENS_22__unordered_map_hasherIS3_S9_NS_4hashIS3_EENS_8equal_toIS3_EELb1EEENS_21__unordered_map_equalIS3_S9_SE_SC_Lb1EEENS_9allocatorIS9_EEE21__emplace_unique_implIJRPS5_S8_EEENS_4pairINS_15__hash_iteratorIPNS_11__hash_nodeIS9_S5_EEEEbEEDpOT_, symObjAddr: 0x12310, symBinAddr: 0x170E0, symSize: 0x100 }
  - { offsetInCU: 0xB963B, offset: 0xB963B, size: 0x8, addend: 0x0, symName: __ZNSt3__112__hash_tableINS_17__hash_value_typeIPKvNS_10unique_ptrIvPFvPvEEEEENS_22__unordered_map_hasherIS3_S9_NS_4hashIS3_EENS_8equal_toIS3_EELb1EEENS_21__unordered_map_equalIS3_S9_SE_SC_Lb1EEENS_9allocatorIS9_EEE21__emplace_unique_implIJRP13MLCTypeMethodS8_EEENS_4pairINS_15__hash_iteratorIPNS_11__hash_nodeIS9_S5_EEEEbEEDpOT_, symObjAddr: 0x142D0, symBinAddr: 0x190A0, symSize: 0x100 }
  - { offsetInCU: 0xB9EBE, offset: 0xB9EBE, size: 0x8, addend: 0x0, symName: __ZNSt3__112__hash_tableINS_17__hash_value_typeIPKvNS_10unique_ptrI6MLCAnyPFvPS5_EEEEENS_22__unordered_map_hasherIS3_SA_NS_4hashIS3_EENS_8equal_toIS3_EELb1EEENS_21__unordered_map_equalIS3_SA_SF_SD_Lb1EEENS_9allocatorISA_EEE21__emplace_unique_implIJRPN3mlc7FuncObjES9_EEENS_4pairINS_15__hash_iteratorIPNS_11__hash_nodeISA_PvEEEEbEEDpOT_, symObjAddr: 0x15280, symBinAddr: 0x1A050, symSize: 0x100 }
  - { offsetInCU: 0xBA56F, offset: 0xBA56F, size: 0x8, addend: 0x0, symName: __ZN3mlc8registry9TypeTable9NewObjPtrINS_7FuncObjEEEvPPT_S5_.cold.1, symObjAddr: 0x29C90, symBinAddr: 0x55B60, symSize: 0x2C }
  - { offsetInCU: 0xBAE66, offset: 0xBAE66, size: 0x8, addend: 0x0, symName: __ZNSt3__112__hash_tableINS_17__hash_value_typeINS_12basic_stringIcNS_11char_traitsIcEENS_9allocatorIcEEEENS_13unordered_mapIiPN3mlc7FuncObjENS_4hashIiEENS_8equal_toIiEENS5_INS_4pairIKiSB_EEEEEEEENS_22__unordered_map_hasherIS7_SL_NSC_IS7_EENSE_IS7_EELb1EEENS_21__unordered_map_equalIS7_SL_SO_SN_Lb1EEENS5_ISL_EEE11__do_rehashILb1EEEvm, symObjAddr: 0x149E0, symBinAddr: 0x197B0, symSize: 0x240 }
  - { offsetInCU: 0xBB2F2, offset: 0xBB2F2, size: 0x8, addend: 0x0, symName: __ZNSt3__110unique_ptrINS_11__hash_nodeINS_17__hash_value_typeINS_12basic_stringIcNS_11char_traitsIcEENS_9allocatorIcEEEENS_13unordered_mapIiPN3mlc7FuncObjENS_4hashIiEENS_8equal_toIiEENS6_INS_4pairIKiSC_EEEEEEEEPvEENS_22__hash_node_destructorINS6_ISO_EEEEED1B7v160006Ev, symObjAddr: 0x14960, symBinAddr: 0x19730, symSize: 0x80 }
  - { offsetInCU: 0xBC0C3, offset: 0xBC0C3, size: 0x8, addend: 0x0, symName: __ZNSt3__112__hash_tableINS_17__hash_value_typeIiPN3mlc7FuncObjEEENS_22__unordered_map_hasherIiS5_NS_4hashIiEENS_8equal_toIiEELb1EEENS_21__unordered_map_equalIiS5_SA_S8_Lb1EEENS_9allocatorIS5_EEE11__do_rehashILb1EEEvm, symObjAddr: 0x15040, symBinAddr: 0x19E10, symSize: 0x240 }
  - { offsetInCU: 0xBD0FD, offset: 0xBD0FD, size: 0x8, addend: 0x0, symName: __ZNSt3__112__hash_tableINS_17__hash_value_typeINS_12basic_stringIcNS_11char_traitsIcEENS_9allocatorIcEEEENS_10unique_ptrIN3mlc8registry10DSOLibraryENS_14default_deleteISB_EEEEEENS_22__unordered_map_hasherIS7_SF_NS_4hashIS7_EENS_8equal_toIS7_EELb1EEENS_21__unordered_map_equalIS7_SF_SK_SI_Lb1EEENS5_ISF_EEE17__deallocate_nodeEPNS_16__hash_node_baseIPNS_11__hash_nodeISF_PvEEEE, symObjAddr: 0x166B0, symBinAddr: 0x1B480, symSize: 0x80 }
  - { offsetInCU: 0xBD464, offset: 0xBD464, size: 0x8, addend: 0x0, symName: __ZNSt3__112__hash_tableINS_17__hash_value_typeINS_12basic_stringIcNS_11char_traitsIcEENS_9allocatorIcEEEENS_13unordered_mapIiPN3mlc7FuncObjENS_4hashIiEENS_8equal_toIiEENS5_INS_4pairIKiSB_EEEEEEEENS_22__unordered_map_hasherIS7_SL_NSC_IS7_EENSE_IS7_EELb1EEENS_21__unordered_map_equalIS7_SL_SO_SN_Lb1EEENS5_ISL_EEED2Ev, symObjAddr: 0x16730, symBinAddr: 0x1B500, symSize: 0xB0 }
  - { offsetInCU: 0xBE36D, offset: 0xBE36D, size: 0x8, addend: 0x0, symName: __ZNSt3__112__hash_tableINS_17__hash_value_typeINS_12basic_stringIcNS_11char_traitsIcEENS_9allocatorIcEEEEPN3mlc7FuncObjEEENS_22__unordered_map_hasherIS7_SB_NS_4hashIS7_EENS_8equal_toIS7_EELb1EEENS_21__unordered_map_equalIS7_SB_SG_SE_Lb1EEENS5_ISB_EEE11__do_rehashILb1EEEvm, symObjAddr: 0x16DA0, symBinAddr: 0x1BB70, symSize: 0x240 }
  - { offsetInCU: 0xBE7F9, offset: 0xBE7F9, size: 0x8, addend: 0x0, symName: __ZNSt3__110unique_ptrINS_11__hash_nodeINS_17__hash_value_typeINS_12basic_stringIcNS_11char_traitsIcEENS_9allocatorIcEEEEPN3mlc7FuncObjEEEPvEENS_22__hash_node_destructorINS6_ISE_EEEEED1B7v160006Ev, symObjAddr: 0x16D60, symBinAddr: 0x1BB30, symSize: 0x40 }
  - { offsetInCU: 0xBEC3D, offset: 0xBEC3D, size: 0x8, addend: 0x0, symName: __ZZN3mlc7FuncObj11FromForeignEPvPFvS1_EPFiPKviPK6MLCAnyPS6_EENKUliS8_S9_E_clEiS8_S9_, symObjAddr: 0x17290, symBinAddr: 0x1C060, symSize: 0x220 }
  - { offsetInCU: 0xBF276, offset: 0xBF276, size: 0x8, addend: 0x0, symName: __ZN3mlc4base22DefaultObjectAllocatorINS_4core8FuncImplIZNS_7FuncObj11FromForeignEPvPFvS5_EPFiPKviPK6MLCAnyPSA_EEUliSC_SD_E_EEvE7DeleterES5_, symObjAddr: 0x17270, symBinAddr: 0x1C040, symSize: 0x20 }
  - { offsetInCU: 0xBF2B0, offset: 0xBF2B0, size: 0x8, addend: 0x0, symName: __ZZN3mlc7FuncObj11FromForeignEPvPFvS1_EPFiPKviPK6MLCAnyPS6_EENKUliS8_S9_E0_clEiS8_S9_, symObjAddr: 0x17510, symBinAddr: 0x1C2E0, symSize: 0x220 }
  - { offsetInCU: 0xBF95A, offset: 0xBF95A, size: 0x8, addend: 0x0, symName: __ZN3mlc4base22DefaultObjectAllocatorINS_4core8FuncImplIZNS_7FuncObj11FromForeignEPvPFvS5_EPFiPKviPK6MLCAnyPSA_EEUliSC_SD_E0_EEvE7DeleterES5_, symObjAddr: 0x174C0, symBinAddr: 0x1C290, symSize: 0x50 }
  - { offsetInCU: 0xBFAE3, offset: 0xBFAE3, size: 0x8, addend: 0x0, symName: __ZNSt3__120__shared_ptr_pointerIPvPFvS1_ENS_9allocatorIvEEED1Ev, symObjAddr: 0x17730, symBinAddr: 0x1C500, symSize: 0x10 }
  - { offsetInCU: 0xBFB3B, offset: 0xBFB3B, size: 0x8, addend: 0x0, symName: __ZNSt3__120__shared_ptr_pointerIPvPFvS1_ENS_9allocatorIvEEED0Ev, symObjAddr: 0x17740, symBinAddr: 0x1C510, symSize: 0x20 }
  - { offsetInCU: 0xBFBA0, offset: 0xBFBA0, size: 0x8, addend: 0x0, symName: __ZNSt3__120__shared_ptr_pointerIPvPFvS1_ENS_9allocatorIvEEE16__on_zero_sharedEv, symObjAddr: 0x17760, symBinAddr: 0x1C530, symSize: 0x20 }
  - { offsetInCU: 0xBFC19, offset: 0xBFC19, size: 0x8, addend: 0x0, symName: __ZNKSt3__120__shared_ptr_pointerIPvPFvS1_ENS_9allocatorIvEEE13__get_deleterERKSt9type_info, symObjAddr: 0x17780, symBinAddr: 0x1C550, symSize: 0x20 }
  - { offsetInCU: 0xBFCE0, offset: 0xBFCE0, size: 0x8, addend: 0x0, symName: __ZNSt3__120__shared_ptr_pointerIPvPFvS1_ENS_9allocatorIvEEE21__on_zero_shared_weakEv, symObjAddr: 0x177A0, symBinAddr: 0x1C570, symSize: 0x10 }
  - { offsetInCU: 0xC0122, offset: 0xC0122, size: 0x8, addend: 0x0, symName: __ZNSt3__112__hash_tableINS_17__hash_value_typeINS_12basic_stringIcNS_11char_traitsIcEENS_9allocatorIcEEEE12DLDeviceTypeEENS_22__unordered_map_hasherIS7_S9_NS_4hashIS7_EENS_8equal_toIS7_EELb1EEENS_21__unordered_map_equalIS7_S9_SE_SC_Lb1EEENS5_IS9_EEE11__do_rehashILb1EEEvm, symObjAddr: 0x17D70, symBinAddr: 0x1CB40, symSize: 0x240 }
  - { offsetInCU: 0xC05AE, offset: 0xC05AE, size: 0x8, addend: 0x0, symName: __ZNSt3__110unique_ptrINS_11__hash_nodeINS_17__hash_value_typeINS_12basic_stringIcNS_11char_traitsIcEENS_9allocatorIcEEEE12DLDeviceTypeEEPvEENS_22__hash_node_destructorINS6_ISC_EEEEED1B7v160006Ev, symObjAddr: 0x17D30, symBinAddr: 0x1CB00, symSize: 0x40 }
  - { offsetInCU: 0xC0CD5, offset: 0xC0CD5, size: 0x8, addend: 0x0, symName: __ZNSt3__112__hash_tableINS_17__hash_value_typeINS_12basic_stringIcNS_11char_traitsIcEENS_9allocatorIcEEEE10DLDataTypeEENS_22__unordered_map_hasherIS7_S9_NS_4hashIS7_EENS_8equal_toIS7_EELb1EEENS_21__unordered_map_equalIS7_S9_SE_SC_Lb1EEENS5_IS9_EEE11__do_rehashILb1EEEvm, symObjAddr: 0x18560, symBinAddr: 0x1D330, symSize: 0x240 }
  - { offsetInCU: 0xC1161, offset: 0xC1161, size: 0x8, addend: 0x0, symName: __ZNSt3__110unique_ptrINS_11__hash_nodeINS_17__hash_value_typeINS_12basic_stringIcNS_11char_traitsIcEENS_9allocatorIcEEEE10DLDataTypeEEPvEENS_22__hash_node_destructorINS6_ISC_EEEEED1B7v160006Ev, symObjAddr: 0x18520, symBinAddr: 0x1D2F0, symSize: 0x40 }
  - { offsetInCU: 0xC1685, offset: 0xC1685, size: 0x8, addend: 0x0, symName: __ZN3mlc4core8Func2StrINS_3RefINS_6ObjectEEEJEE3RunIJEEENSt3__112basic_stringIcNS7_11char_traitsIcEENS7_9allocatorIcEEEENS7_16integer_sequenceImJXspT_EEEE, symObjAddr: 0x18AA0, symBinAddr: 0x1D870, symSize: 0x200 }
  - { offsetInCU: 0xC1C9D, offset: 0xC1C9D, size: 0x8, addend: 0x0, symName: __ZN3mlc4base22DefaultObjectAllocatorINS_4core8FuncImplIPFNS_3RefINS_6ObjectEEEvEEEvE7DeleterEPv, symObjAddr: 0x18A80, symBinAddr: 0x1D850, symSize: 0x20 }
  - { offsetInCU: 0xC1CCC, offset: 0xC1CCC, size: 0x8, addend: 0x0, symName: __ZN3mlc4base8Type2StrINS_3RefINS_6ObjectEEEE3RunEv, symObjAddr: 0x18CA0, symBinAddr: 0x1DA70, symSize: 0x100 }
  - { offsetInCU: 0xC240F, offset: 0xC240F, size: 0x8, addend: 0x0, symName: __ZN3mlc4base22DefaultObjectAllocatorINS_6ObjectEvE7DeleterEPv, symObjAddr: 0x18DA0, symBinAddr: 0x1DB70, symSize: 0x20 }
  - { offsetInCU: 0xC2569, offset: 0xC2569, size: 0x8, addend: 0x0, symName: __ZN3mlc4core19ReflectGetterSetterIPKcE6GetterEP12MLCTypeFieldPvP6MLCAny, symObjAddr: 0x18DC0, symBinAddr: 0x1DB90, symSize: 0x200 }
  - { offsetInCU: 0xC3133, offset: 0xC3133, size: 0x8, addend: 0x0, symName: __ZNSt3__16vectorINS0_IP11MLCTypeInfoNS_9allocatorIS2_EEEENS3_IS5_EEE24__emplace_back_slow_pathIJEEEvDpOT_, symObjAddr: 0x19430, symBinAddr: 0x1E200, symSize: 0x190 }
  - { offsetInCU: 0xC37D8, offset: 0xC37D8, size: 0x8, addend: 0x0, symName: __ZN3mlc4base8Type2StrIPKcE17GetTypeAnnotationEPNSt3__16vectorIP11MLCTypeInfoNS5_9allocatorIS8_EEEE, symObjAddr: 0x19210, symBinAddr: 0x1DFE0, symSize: 0x220 }
  - { offsetInCU: 0xC3DB1, offset: 0xC3DB1, size: 0x8, addend: 0x0, symName: __ZNKSt3__16vectorIP11MLCTypeInfoNS_9allocatorIS2_EEE20__throw_length_errorB7v160006Ev, symObjAddr: 0x195D0, symBinAddr: 0x1E3A0, symSize: 0x10 }
  - { offsetInCU: 0xC3DDA, offset: 0xC3DDA, size: 0x8, addend: 0x0, symName: __ZNKSt3__16vectorI12MLCTypeFieldNS_9allocatorIS1_EEE20__throw_length_errorB7v160006Ev, symObjAddr: 0x195E0, symBinAddr: 0x1E3B0, symSize: 0x10 }
  - { offsetInCU: 0xC40EC, offset: 0xC40EC, size: 0x8, addend: 0x0, symName: __ZNKSt3__16vectorINS0_IP11MLCTypeInfoNS_9allocatorIS2_EEEENS3_IS5_EEE20__throw_length_errorB7v160006Ev, symObjAddr: 0x195C0, symBinAddr: 0x1E390, symSize: 0x10 }
  - { offsetInCU: 0xC4115, offset: 0xC4115, size: 0x8, addend: 0x0, symName: __ZNKSt3__16vectorIP11MLCTypeInfoNS_9allocatorIS2_EEE20__throw_length_errorB7v160006Ev, symObjAddr: 0x195D0, symBinAddr: 0x1E3A0, symSize: 0x10 }
  - { offsetInCU: 0xC43C6, offset: 0xC43C6, size: 0x8, addend: 0x0, symName: __ZN3mlc4core8Func2StrINSt3__112basic_stringIcNS2_11char_traitsIcEENS2_9allocatorIcEEEEJPKNS_8ErrorObjEEE3RunIJLm0EEEES8_NS2_16integer_sequenceImJXspT_EEEE, symObjAddr: 0x19EA0, symBinAddr: 0x1EC70, symSize: 0x1F0 }
  - { offsetInCU: 0xC4B78, offset: 0xC4B78, size: 0x8, addend: 0x0, symName: __ZN3mlc4base8Type2StrIPKNS_8ErrorObjEE3RunEv, symObjAddr: 0x1A120, symBinAddr: 0x1EEF0, symSize: 0xE0 }
  - { offsetInCU: 0xC517A, offset: 0xC517A, size: 0x8, addend: 0x0, symName: __ZN3mlc4base22DefaultObjectAllocatorINS_4core8FuncImplIZNS2_17FuncAllocatorImplIMNS_8ErrorObjEKFNSt3__112basic_stringIcNS6_11char_traitsIcEENS6_9allocatorIcEEEEvEvE3RunESE_EUlPKS5_E_EEvE7DeleterEPv, symObjAddr: 0x19E80, symBinAddr: 0x1EC50, symSize: 0x20 }
  - { offsetInCU: 0xC51A9, offset: 0xC51A9, size: 0x8, addend: 0x0, symName: __ZN3mlc4core8Func2StrINSt3__112basic_stringIcNS2_11char_traitsIcEENS2_9allocatorIcEEEEJPKNS_8ErrorObjEEE5ApplyILm0EEEvRNS2_13basic_ostreamIcS5_EE, symObjAddr: 0x1A090, symBinAddr: 0x1EE60, symSize: 0x90 }
  - { offsetInCU: 0xC563E, offset: 0xC563E, size: 0x8, addend: 0x0, symName: __ZN3mlc4core19ReflectGetterSetterIxE6GetterEP12MLCTypeFieldPvP6MLCAny, symObjAddr: 0x1A200, symBinAddr: 0x1EFD0, symSize: 0x50 }
  - { offsetInCU: 0xC57E9, offset: 0xC57E9, size: 0x8, addend: 0x0, symName: __ZN3mlc4base8Type2StrIxE17GetTypeAnnotationEPNSt3__16vectorIP11MLCTypeInfoNS3_9allocatorIS6_EEEE, symObjAddr: 0x1A4A0, symBinAddr: 0x1F270, symSize: 0x220 }
  - { offsetInCU: 0xC5DC2, offset: 0xC5DC2, size: 0x8, addend: 0x0, symName: __ZN3mlc4base8Type2StrIPcE17GetTypeAnnotationEPNSt3__16vectorIP11MLCTypeInfoNS4_9allocatorIS7_EEEE, symObjAddr: 0x1A910, symBinAddr: 0x1F6E0, symSize: 0x220 }
  - { offsetInCU: 0xC65FC, offset: 0xC65FC, size: 0x8, addend: 0x0, symName: __ZN3mlc4core8Func2StrINSt3__112basic_stringIcNS2_11char_traitsIcEENS2_9allocatorIcEEEEJPKNS_6StrObjEEE3RunIJLm0EEEES8_NS2_16integer_sequenceImJXspT_EEEE, symObjAddr: 0x1B3E0, symBinAddr: 0x201B0, symSize: 0x1F0 }
  - { offsetInCU: 0xC6DAE, offset: 0xC6DAE, size: 0x8, addend: 0x0, symName: __ZN3mlc4base8Type2StrIPKNS_6StrObjEE3RunEv, symObjAddr: 0x1B660, symBinAddr: 0x20430, symSize: 0xE0 }
  - { offsetInCU: 0xC73B0, offset: 0xC73B0, size: 0x8, addend: 0x0, symName: __ZN3mlc4base22DefaultObjectAllocatorINS_4core8FuncImplIZNS2_17FuncAllocatorImplIMNS_6StrObjEKFNSt3__112basic_stringIcNS6_11char_traitsIcEENS6_9allocatorIcEEEEvEvE3RunESE_EUlPKS5_E_EEvE7DeleterEPv, symObjAddr: 0x1B3C0, symBinAddr: 0x20190, symSize: 0x20 }
  - { offsetInCU: 0xC73DF, offset: 0xC73DF, size: 0x8, addend: 0x0, symName: __ZN3mlc4core8Func2StrINSt3__112basic_stringIcNS2_11char_traitsIcEENS2_9allocatorIcEEEEJPKNS_6StrObjEEE5ApplyILm0EEEvRNS2_13basic_ostreamIcS5_EE, symObjAddr: 0x1B5D0, symBinAddr: 0x203A0, symSize: 0x90 }
  - { offsetInCU: 0xC7869, offset: 0xC7869, size: 0x8, addend: 0x0, symName: __ZN3mlc4core19ReflectGetterSetterIPvE6GetterEP12MLCTypeFieldS2_P6MLCAny, symObjAddr: 0x1B9D0, symBinAddr: 0x207A0, symSize: 0x50 }
  - { offsetInCU: 0xC7A30, offset: 0xC7A30, size: 0x8, addend: 0x0, symName: __ZN3mlc4base8Type2StrIPvE17GetTypeAnnotationEPNSt3__16vectorIP11MLCTypeInfoNS4_9allocatorIS7_EEEE, symObjAddr: 0x1BC70, symBinAddr: 0x20A40, symSize: 0x220 }
  - { offsetInCU: 0xC8035, offset: 0xC8035, size: 0x8, addend: 0x0, symName: __ZN3mlc4core8DictBase17TryInsertOrLookupINS0_7AnyHashENS0_8AnyEqualEEEPNSt3__14pairI6MLCAnyS7_EEPS7_, symObjAddr: 0x1C0A0, symBinAddr: 0x20E70, symSize: 0x420 }
  - { offsetInCU: 0xC85C4, offset: 0xC85C4, size: 0x8, addend: 0x0, symName: __ZN3mlc4core8DictBase12WithCapacityINS_8UDictObjEEENS_3RefIT_EEx, symObjAddr: 0x1C4C0, symBinAddr: 0x21290, symSize: 0x300 }
  - { offsetInCU: 0xC8B31, offset: 0xC8B31, size: 0x8, addend: 0x0, symName: __ZN3mlc4base22DefaultObjectAllocatorINS_8UDictObjEvE7DeleterEPv, symObjAddr: 0x1BF70, symBinAddr: 0x20D40, symSize: 0x130 }
  - { offsetInCU: 0xC8F8D, offset: 0xC8F8D, size: 0x8, addend: 0x0, symName: __ZNK3mlc4core7AnyHashclERK6MLCAny, symObjAddr: 0x1C7C0, symBinAddr: 0x21590, symSize: 0x1B0 }
  - { offsetInCU: 0xC9062, offset: 0xC9062, size: 0x8, addend: 0x0, symName: __ZNK3mlc4core8DictBase4PrevINS0_7AnyHashEEENS0_13DictBlockIterES4_, symObjAddr: 0x1C970, symBinAddr: 0x21740, symSize: 0x130 }
  - { offsetInCU: 0xC935A, offset: 0xC935A, size: 0x8, addend: 0x0, symName: __ZZN3mlc4core8DictBase12WithCapacityINS_8UDictObjEEENS_3RefIT_EExENKUlPhP6MLCAnyS9_E_clES7_S9_S9_, symObjAddr: 0x1CAA0, symBinAddr: 0x21870, symSize: 0x1C0 }
  - { offsetInCU: 0xC9A2B, offset: 0xC9A2B, size: 0x8, addend: 0x0, symName: __ZN3mlc4base22DefaultObjectAllocatorINS_4core8FuncImplIPFviPKNS_7AnyViewEPNS_3AnyEEEEvE7DeleterEPv, symObjAddr: 0x1CDC0, symBinAddr: 0x21B90, symSize: 0x20 }
  - { offsetInCU: 0xC9CCE, offset: 0xC9CCE, size: 0x8, addend: 0x0, symName: __ZN3mlc4core8Func2StrINSt3__112basic_stringIcNS2_11char_traitsIcEENS2_9allocatorIcEEEEJPKNS_8UDictObjEEE3RunIJLm0EEEES8_NS2_16integer_sequenceImJXspT_EEEE, symObjAddr: 0x1D690, symBinAddr: 0x22460, symSize: 0x1F0 }
  - { offsetInCU: 0xCA47F, offset: 0xCA47F, size: 0x8, addend: 0x0, symName: __ZN3mlc4base8Type2StrIPKNS_8UDictObjEE3RunEv, symObjAddr: 0x1D960, symBinAddr: 0x22730, symSize: 0x80 }
  - { offsetInCU: 0xCA77D, offset: 0xCA77D, size: 0x8, addend: 0x0, symName: __ZN3mlc4base22DefaultObjectAllocatorINS_4core8FuncImplIZNS2_17FuncAllocatorImplIMNS_8UDictObjEKFNSt3__112basic_stringIcNS6_11char_traitsIcEENS6_9allocatorIcEEEEvEvE3RunESE_EUlPKS5_E_EEvE7DeleterEPv, symObjAddr: 0x1D670, symBinAddr: 0x22440, symSize: 0x20 }
  - { offsetInCU: 0xCA7AC, offset: 0xCA7AC, size: 0x8, addend: 0x0, symName: __ZN3mlc4core8Func2StrINSt3__112basic_stringIcNS2_11char_traitsIcEENS2_9allocatorIcEEEEJPKNS_8UDictObjEEE5ApplyILm0EEEvRNS2_13basic_ostreamIcS5_EE, symObjAddr: 0x1D880, symBinAddr: 0x22650, symSize: 0xE0 }
  - { offsetInCU: 0xCACAC, offset: 0xCACAC, size: 0x8, addend: 0x0, symName: __ZN3mlc4base8Type2StrIKNS_8UDictObjEE3RunEv, symObjAddr: 0x1D9E0, symBinAddr: 0x227B0, symSize: 0x200 }
  - { offsetInCU: 0xCBFA2, offset: 0xCBFA2, size: 0x8, addend: 0x0, symName: __ZN3mlc4core8Func2StrINS_3AnyEJPNS_8UDictObjES2_EE3RunIJLm0ELm1EEEENSt3__112basic_stringIcNS7_11char_traitsIcEENS7_9allocatorIcEEEENS7_16integer_sequenceImJXspT_EEEE, symObjAddr: 0x1E6C0, symBinAddr: 0x23490, symSize: 0x200 }
  - { offsetInCU: 0xCC76E, offset: 0xCC76E, size: 0x8, addend: 0x0, symName: __ZN3mlc4base8Type2StrIPNS_8UDictObjEE3RunEv, symObjAddr: 0x1EA30, symBinAddr: 0x23800, symSize: 0x80 }
  - { offsetInCU: 0xCCA6C, offset: 0xCCA6C, size: 0x8, addend: 0x0, symName: __ZN3mlc4base22DefaultObjectAllocatorINS_4core8FuncImplIPFNS_3AnyEPNS_8UDictObjES4_EEEvE7DeleterEPv, symObjAddr: 0x1E6A0, symBinAddr: 0x23470, symSize: 0x20 }
  - { offsetInCU: 0xCCA9B, offset: 0xCCA9B, size: 0x8, addend: 0x0, symName: __ZN3mlc4core8Func2StrINS_3AnyEJPNS_8UDictObjES2_EE5ApplyILm0EEEvRNSt3__113basic_ostreamIcNS7_11char_traitsIcEEEE, symObjAddr: 0x1E8C0, symBinAddr: 0x23690, symSize: 0xE0 }
  - { offsetInCU: 0xCCF94, offset: 0xCCF94, size: 0x8, addend: 0x0, symName: __ZN3mlc4core8Func2StrINS_3AnyEJPNS_8UDictObjES2_EE5ApplyILm1EEEvRNSt3__113basic_ostreamIcNS7_11char_traitsIcEEEE, symObjAddr: 0x1E9A0, symBinAddr: 0x23770, symSize: 0x90 }
  - { offsetInCU: 0xCD4AA, offset: 0xCD4AA, size: 0x8, addend: 0x0, symName: __ZN3mlc4base8Type2StrINS_8UDictObjEE3RunEv, symObjAddr: 0x1EAB0, symBinAddr: 0x23880, symSize: 0x200 }
  - { offsetInCU: 0xCE78C, offset: 0xCE78C, size: 0x8, addend: 0x0, symName: __ZN3mlc4core8Func2StrINS_3AnyEJPNS_8UDictObjExEE3RunIJLm0ELm1EEEENSt3__112basic_stringIcNS7_11char_traitsIcEENS7_9allocatorIcEEEENS7_16integer_sequenceImJXspT_EEEE, symObjAddr: 0x1F950, symBinAddr: 0x24720, symSize: 0x200 }
  - { offsetInCU: 0xCEF59, offset: 0xCEF59, size: 0x8, addend: 0x0, symName: __ZN3mlc4base22DefaultObjectAllocatorINS_4core8FuncImplIPFNS_3AnyEPNS_8UDictObjExEEEvE7DeleterEPv, symObjAddr: 0x1F930, symBinAddr: 0x24700, symSize: 0x20 }
  - { offsetInCU: 0xCEF88, offset: 0xCEF88, size: 0x8, addend: 0x0, symName: __ZN3mlc4core8Func2StrINS_3AnyEJPNS_8UDictObjExEE5ApplyILm0EEEvRNSt3__113basic_ostreamIcNS7_11char_traitsIcEEEE, symObjAddr: 0x1FB50, symBinAddr: 0x24920, symSize: 0xE0 }
  - { offsetInCU: 0xCF481, offset: 0xCF481, size: 0x8, addend: 0x0, symName: __ZN3mlc4core8Func2StrINS_3AnyEJPNS_8UDictObjExEE5ApplyILm1EEEvRNSt3__113basic_ostreamIcNS7_11char_traitsIcEEEE, symObjAddr: 0x1FC30, symBinAddr: 0x24A00, symSize: 0x90 }
  - { offsetInCU: 0xCFB8D, offset: 0xCFB8D, size: 0x8, addend: 0x0, symName: __ZN3mlc4core8Func2StrIxJPNS_8UDictObjExEE3RunIJLm0ELm1EEEENSt3__112basic_stringIcNS6_11char_traitsIcEENS6_9allocatorIcEEEENS6_16integer_sequenceImJXspT_EEEE, symObjAddr: 0x20920, symBinAddr: 0x256F0, symSize: 0x200 }
  - { offsetInCU: 0xD035A, offset: 0xD035A, size: 0x8, addend: 0x0, symName: __ZN3mlc4base22DefaultObjectAllocatorINS_4core8FuncImplIPFxPNS_8UDictObjExEEEvE7DeleterEPv, symObjAddr: 0x20900, symBinAddr: 0x256D0, symSize: 0x20 }
  - { offsetInCU: 0xD0389, offset: 0xD0389, size: 0x8, addend: 0x0, symName: __ZN3mlc4core8Func2StrIxJPNS_8UDictObjExEE5ApplyILm0EEEvRNSt3__113basic_ostreamIcNS6_11char_traitsIcEEEE, symObjAddr: 0x20B20, symBinAddr: 0x258F0, symSize: 0xE0 }
  - { offsetInCU: 0xD0882, offset: 0xD0882, size: 0x8, addend: 0x0, symName: __ZN3mlc4core8Func2StrIxJPNS_8UDictObjExEE5ApplyILm1EEEvRNSt3__113basic_ostreamIcNS6_11char_traitsIcEEEE, symObjAddr: 0x20C00, symBinAddr: 0x259D0, symSize: 0x90 }
  - { offsetInCU: 0xD0E6A, offset: 0xD0E6A, size: 0x8, addend: 0x0, symName: __ZN3mlc4base22DefaultObjectAllocatorINS_8UListObjEvE7DeleterEPv, symObjAddr: 0x212B0, symBinAddr: 0x26080, symSize: 0x90 }
  - { offsetInCU: 0xD11AE, offset: 0xD11AE, size: 0x8, addend: 0x0, symName: __ZNSt3__128__exception_guard_exceptionsINS_29_AllocatorDestroyRangeReverseINS_9allocatorIN3mlc3AnyEEEPS4_EEED1B7v160006Ev, symObjAddr: 0x21590, symBinAddr: 0x26360, symSize: 0x70 }
  - { offsetInCU: 0xD15D5, offset: 0xD15D5, size: 0x8, addend: 0x0, symName: __ZN3mlc4core8Func2StrINSt3__112basic_stringIcNS2_11char_traitsIcEENS2_9allocatorIcEEEEJPKNS_8UListObjEEE3RunIJLm0EEEES8_NS2_16integer_sequenceImJXspT_EEEE, symObjAddr: 0x22210, symBinAddr: 0x26FE0, symSize: 0x1F0 }
  - { offsetInCU: 0xD1D86, offset: 0xD1D86, size: 0x8, addend: 0x0, symName: __ZN3mlc4base8Type2StrIPKNS_8UListObjEE3RunEv, symObjAddr: 0x224E0, symBinAddr: 0x272B0, symSize: 0x80 }
  - { offsetInCU: 0xD2084, offset: 0xD2084, size: 0x8, addend: 0x0, symName: __ZN3mlc4base22DefaultObjectAllocatorINS_4core8FuncImplIZNS2_17FuncAllocatorImplIMNS_8UListObjEKFNSt3__112basic_stringIcNS6_11char_traitsIcEENS6_9allocatorIcEEEEvEvE3RunESE_EUlPKS5_E_EEvE7DeleterEPv, symObjAddr: 0x221F0, symBinAddr: 0x26FC0, symSize: 0x20 }
  - { offsetInCU: 0xD20B3, offset: 0xD20B3, size: 0x8, addend: 0x0, symName: __ZN3mlc4core8Func2StrINSt3__112basic_stringIcNS2_11char_traitsIcEENS2_9allocatorIcEEEEJPKNS_8UListObjEEE5ApplyILm0EEEvRNS2_13basic_ostreamIcS5_EE, symObjAddr: 0x22400, symBinAddr: 0x271D0, symSize: 0xE0 }
  - { offsetInCU: 0xD25B3, offset: 0xD25B3, size: 0x8, addend: 0x0, symName: __ZN3mlc4base8Type2StrIKNS_8UListObjEE3RunEv, symObjAddr: 0x22560, symBinAddr: 0x27330, symSize: 0xE0 }
  - { offsetInCU: 0xD2F10, offset: 0xD2F10, size: 0x8, addend: 0x0, symName: __ZN3mlc4core8Func2StrINS_3AnyEJPNS_8UListObjExEE3RunIJLm0ELm1EEEENSt3__112basic_stringIcNS7_11char_traitsIcEENS7_9allocatorIcEEEENS7_16integer_sequenceImJXspT_EEEE, symObjAddr: 0x232E0, symBinAddr: 0x280B0, symSize: 0x200 }
  - { offsetInCU: 0xD36DC, offset: 0xD36DC, size: 0x8, addend: 0x0, symName: __ZN3mlc4base8Type2StrIPNS_8UListObjEE3RunEv, symObjAddr: 0x23650, symBinAddr: 0x28420, symSize: 0x80 }
  - { offsetInCU: 0xD39DA, offset: 0xD39DA, size: 0x8, addend: 0x0, symName: __ZN3mlc4base22DefaultObjectAllocatorINS_4core8FuncImplIPFNS_3AnyEPNS_8UListObjExEEEvE7DeleterEPv, symObjAddr: 0x232C0, symBinAddr: 0x28090, symSize: 0x20 }
  - { offsetInCU: 0xD3A09, offset: 0xD3A09, size: 0x8, addend: 0x0, symName: __ZN3mlc4core8Func2StrINS_3AnyEJPNS_8UListObjExEE5ApplyILm0EEEvRNSt3__113basic_ostreamIcNS7_11char_traitsIcEEEE, symObjAddr: 0x234E0, symBinAddr: 0x282B0, symSize: 0xE0 }
  - { offsetInCU: 0xD3F02, offset: 0xD3F02, size: 0x8, addend: 0x0, symName: __ZN3mlc4core8Func2StrINS_3AnyEJPNS_8UListObjExEE5ApplyILm1EEEvRNSt3__113basic_ostreamIcNS7_11char_traitsIcEEEE, symObjAddr: 0x235C0, symBinAddr: 0x28390, symSize: 0x90 }
  - { offsetInCU: 0xD4418, offset: 0xD4418, size: 0x8, addend: 0x0, symName: __ZN3mlc4base8Type2StrINS_8UListObjEE3RunEv, symObjAddr: 0x236D0, symBinAddr: 0x284A0, symSize: 0xE0 }
  - { offsetInCU: 0xD4D4D, offset: 0xD4D4D, size: 0x8, addend: 0x0, symName: __ZN3mlc4core8Func2StrINSt3__112basic_stringIcNS2_11char_traitsIcEENS2_9allocatorIcEEEEJPvEE3RunIJLm0EEEES8_NS2_16integer_sequenceImJXspT_EEEE, symObjAddr: 0x23F70, symBinAddr: 0x28D40, symSize: 0x1F0 }
  - { offsetInCU: 0xD54FF, offset: 0xD54FF, size: 0x8, addend: 0x0, symName: __ZN3mlc4base22DefaultObjectAllocatorINS_4core8FuncImplIPFNSt3__112basic_stringIcNS4_11char_traitsIcEENS4_9allocatorIcEEEEPvEEEvE7DeleterESB_, symObjAddr: 0x23F50, symBinAddr: 0x28D20, symSize: 0x20 }
  - { offsetInCU: 0xD552E, offset: 0xD552E, size: 0x8, addend: 0x0, symName: __ZN3mlc4core8Func2StrINSt3__112basic_stringIcNS2_11char_traitsIcEENS2_9allocatorIcEEEEJPvEE5ApplyILm0EEEvRNS2_13basic_ostreamIcS5_EE, symObjAddr: 0x24160, symBinAddr: 0x28F30, symSize: 0x70 }
  - { offsetInCU: 0xD5B95, offset: 0xD5B95, size: 0x8, addend: 0x0, symName: __ZN3mlc4core8Func2StrINSt3__112basic_stringIcNS2_11char_traitsIcEENS2_9allocatorIcEEEEJxEE3RunIJLm0EEEES8_NS2_16integer_sequenceImJXspT_EEEE, symObjAddr: 0x24970, symBinAddr: 0x29740, symSize: 0x1F0 }
  - { offsetInCU: 0xD6347, offset: 0xD6347, size: 0x8, addend: 0x0, symName: __ZN3mlc4base22DefaultObjectAllocatorINS_4core8FuncImplIPFNSt3__112basic_stringIcNS4_11char_traitsIcEENS4_9allocatorIcEEEExEEEvE7DeleterEPv, symObjAddr: 0x24950, symBinAddr: 0x29720, symSize: 0x20 }
  - { offsetInCU: 0xD6376, offset: 0xD6376, size: 0x8, addend: 0x0, symName: __ZN3mlc4core8Func2StrINSt3__112basic_stringIcNS2_11char_traitsIcEENS2_9allocatorIcEEEEJxEE5ApplyILm0EEEvRNS2_13basic_ostreamIcS5_EE, symObjAddr: 0x24B60, symBinAddr: 0x29930, symSize: 0x70 }
  - { offsetInCU: 0xD6A54, offset: 0xD6A54, size: 0x8, addend: 0x0, symName: __ZN3mlc4core8Func2StrINSt3__112basic_stringIcNS2_11char_traitsIcEENS2_9allocatorIcEEEEJdEE3RunIJLm0EEEES8_NS2_16integer_sequenceImJXspT_EEEE, symObjAddr: 0x25390, symBinAddr: 0x2A160, symSize: 0x1F0 }
  - { offsetInCU: 0xD7206, offset: 0xD7206, size: 0x8, addend: 0x0, symName: __ZN3mlc4base22DefaultObjectAllocatorINS_4core8FuncImplIPFNSt3__112basic_stringIcNS4_11char_traitsIcEENS4_9allocatorIcEEEEdEEEvE7DeleterEPv, symObjAddr: 0x25370, symBinAddr: 0x2A140, symSize: 0x20 }
  - { offsetInCU: 0xD7235, offset: 0xD7235, size: 0x8, addend: 0x0, symName: __ZN3mlc4core8Func2StrINSt3__112basic_stringIcNS2_11char_traitsIcEENS2_9allocatorIcEEEEJdEE5ApplyILm0EEEvRNS2_13basic_ostreamIcS5_EE, symObjAddr: 0x25580, symBinAddr: 0x2A350, symSize: 0x80 }
  - { offsetInCU: 0xD7838, offset: 0xD7838, size: 0x8, addend: 0x0, symName: __ZN3mlc4core8Func2StrI8DLDeviceJNS_7AnyViewEEE3RunIJLm0EEEENSt3__112basic_stringIcNS6_11char_traitsIcEENS6_9allocatorIcEEEENS6_16integer_sequenceImJXspT_EEEE, symObjAddr: 0x25A30, symBinAddr: 0x2A800, symSize: 0x1F0 }
  - { offsetInCU: 0xD7FFF, offset: 0xD7FFF, size: 0x8, addend: 0x0, symName: '__ZN3mlc4base22DefaultObjectAllocatorINS_4core8FuncImplINS_8registry8_POD_REG3$_0EEEvE7DeleterEPv', symObjAddr: 0x25A10, symBinAddr: 0x2A7E0, symSize: 0x20 }
  - { offsetInCU: 0xD802E, offset: 0xD802E, size: 0x8, addend: 0x0, symName: __ZN3mlc4core8Func2StrI8DLDeviceJNS_7AnyViewEEE5ApplyILm0EEEvRNSt3__113basic_ostreamIcNS6_11char_traitsIcEEEE, symObjAddr: 0x25C20, symBinAddr: 0x2A9F0, symSize: 0x80 }
  - { offsetInCU: 0xD86C9, offset: 0xD86C9, size: 0x8, addend: 0x0, symName: __ZN3mlc4core8Func2StrINSt3__112basic_stringIcNS2_11char_traitsIcEENS2_9allocatorIcEEEEJ8DLDeviceEE3RunIJLm0EEEES8_NS2_16integer_sequenceImJXspT_EEEE, symObjAddr: 0x265D0, symBinAddr: 0x2B3A0, symSize: 0x1F0 }
  - { offsetInCU: 0xD8E7B, offset: 0xD8E7B, size: 0x8, addend: 0x0, symName: __ZN3mlc4base22DefaultObjectAllocatorINS_4core8FuncImplIPFNSt3__112basic_stringIcNS4_11char_traitsIcEENS4_9allocatorIcEEEE8DLDeviceEEEvE7DeleterEPv, symObjAddr: 0x265B0, symBinAddr: 0x2B380, symSize: 0x20 }
  - { offsetInCU: 0xD8EAA, offset: 0xD8EAA, size: 0x8, addend: 0x0, symName: __ZN3mlc4core8Func2StrINSt3__112basic_stringIcNS2_11char_traitsIcEENS2_9allocatorIcEEEEJ8DLDeviceEE5ApplyILm0EEEvRNS2_13basic_ostreamIcS5_EE, symObjAddr: 0x267C0, symBinAddr: 0x2B590, symSize: 0x80 }
  - { offsetInCU: 0xD95C2, offset: 0xD95C2, size: 0x8, addend: 0x0, symName: __ZN3mlc4core8Func2StrI10DLDataTypeJNS_7AnyViewEEE3RunIJLm0EEEENSt3__112basic_stringIcNS6_11char_traitsIcEENS6_9allocatorIcEEEENS6_16integer_sequenceImJXspT_EEEE, symObjAddr: 0x26C70, symBinAddr: 0x2BA40, symSize: 0x1F0 }
  - { offsetInCU: 0xD9D74, offset: 0xD9D74, size: 0x8, addend: 0x0, symName: '__ZN3mlc4base22DefaultObjectAllocatorINS_4core8FuncImplINS_8registry8_POD_REG3$_1EEEvE7DeleterEPv', symObjAddr: 0x26C50, symBinAddr: 0x2BA20, symSize: 0x20 }
  - { offsetInCU: 0xD9DA3, offset: 0xD9DA3, size: 0x8, addend: 0x0, symName: __ZN3mlc4core8Func2StrI10DLDataTypeJNS_7AnyViewEEE5ApplyILm0EEEvRNSt3__113basic_ostreamIcNS6_11char_traitsIcEEEE, symObjAddr: 0x26E60, symBinAddr: 0x2BC30, symSize: 0x80 }
  - { offsetInCU: 0xDA43E, offset: 0xDA43E, size: 0x8, addend: 0x0, symName: __ZN3mlc4core8Func2StrINSt3__112basic_stringIcNS2_11char_traitsIcEENS2_9allocatorIcEEEEJ10DLDataTypeEE3RunIJLm0EEEES8_NS2_16integer_sequenceImJXspT_EEEE, symObjAddr: 0x27810, symBinAddr: 0x2C5E0, symSize: 0x1F0 }
  - { offsetInCU: 0xDABF0, offset: 0xDABF0, size: 0x8, addend: 0x0, symName: __ZN3mlc4base22DefaultObjectAllocatorINS_4core8FuncImplIPFNSt3__112basic_stringIcNS4_11char_traitsIcEENS4_9allocatorIcEEEE10DLDataTypeEEEvE7DeleterEPv, symObjAddr: 0x277F0, symBinAddr: 0x2C5C0, symSize: 0x20 }
  - { offsetInCU: 0xDAC1F, offset: 0xDAC1F, size: 0x8, addend: 0x0, symName: __ZN3mlc4core8Func2StrINSt3__112basic_stringIcNS2_11char_traitsIcEENS2_9allocatorIcEEEEJ10DLDataTypeEE5ApplyILm0EEEvRNS2_13basic_ostreamIcS5_EE, symObjAddr: 0x27A00, symBinAddr: 0x2C7D0, symSize: 0x80 }
  - { offsetInCU: 0xDB2F6, offset: 0xDB2F6, size: 0x8, addend: 0x0, symName: __ZN3mlc4core8Func2StrINSt3__112basic_stringIcNS2_11char_traitsIcEENS2_9allocatorIcEEEEJPKcEE3RunIJLm0EEEES8_NS2_16integer_sequenceImJXspT_EEEE, symObjAddr: 0x28260, symBinAddr: 0x2D030, symSize: 0x1F0 }
  - { offsetInCU: 0xDBAA8, offset: 0xDBAA8, size: 0x8, addend: 0x0, symName: __ZN3mlc4base22DefaultObjectAllocatorINS_4core8FuncImplIPFNSt3__112basic_stringIcNS4_11char_traitsIcEENS4_9allocatorIcEEEEPKcEEEvE7DeleterEPv, symObjAddr: 0x28240, symBinAddr: 0x2D010, symSize: 0x20 }
  - { offsetInCU: 0xDBAD7, offset: 0xDBAD7, size: 0x8, addend: 0x0, symName: __ZN3mlc4core8Func2StrINSt3__112basic_stringIcNS2_11char_traitsIcEENS2_9allocatorIcEEEEJPKcEE5ApplyILm0EEEvRNS2_13basic_ostreamIcS5_EE, symObjAddr: 0x28450, symBinAddr: 0x2D220, symSize: 0x90 }
  - { offsetInCU: 0xDC0E3, offset: 0xDC0E3, size: 0x8, addend: 0x0, symName: __ZN3mlc4base9PODTraitsINSt3__112basic_stringIcNS2_11char_traitsIcEENS2_9allocatorIcEEEEvE13AnyCopyToTypeEPK6MLCAny, symObjAddr: 0x297A0, symBinAddr: 0x2E570, symSize: 0xD0 }
  - { offsetInCU: 0xDC548, offset: 0xDC548, size: 0x8, addend: 0x0, symName: __ZN3mlc8registry9TypeTable7LoadDSOENSt3__112basic_stringIcNS2_11char_traitsIcEENS2_9allocatorIcEEEE, symObjAddr: 0x28D90, symBinAddr: 0x2DB60, symSize: 0xE0 }
  - { offsetInCU: 0xDC94B, offset: 0xDC94B, size: 0x8, addend: 0x0, symName: __ZN3mlc4core8Func2StrIvJNSt3__112basic_stringIcNS2_11char_traitsIcEENS2_9allocatorIcEEEEEE3RunIJLm0EEEES8_NS2_16integer_sequenceImJXspT_EEEE, symObjAddr: 0x28B30, symBinAddr: 0x2D900, symSize: 0x1F0 }
  - { offsetInCU: 0xDD112, offset: 0xDD112, size: 0x8, addend: 0x0, symName: '__ZN3mlc4base22DefaultObjectAllocatorINS_4core8FuncImplIN12_GLOBAL__N_13$_2EEEvE7DeleterEPv', symObjAddr: 0x28B10, symBinAddr: 0x2D8E0, symSize: 0x20 }
  - { offsetInCU: 0xDD148, offset: 0xDD148, size: 0x8, addend: 0x0, symName: __ZN3mlc4core8Func2StrIvJNSt3__112basic_stringIcNS2_11char_traitsIcEENS2_9allocatorIcEEEEEE5ApplyILm0EEEvRNS2_13basic_ostreamIcS5_EE, symObjAddr: 0x28D20, symBinAddr: 0x2DAF0, symSize: 0x70 }
  - { offsetInCU: 0xDD697, offset: 0xDD697, size: 0x8, addend: 0x0, symName: __ZNSt3__112__hash_tableINS_17__hash_value_typeINS_12basic_stringIcNS_11char_traitsIcEENS_9allocatorIcEEEENS_10unique_ptrIN3mlc8registry10DSOLibraryENS_14default_deleteISB_EEEEEENS_22__unordered_map_hasherIS7_SF_NS_4hashIS7_EENS_8equal_toIS7_EELb1EEENS_21__unordered_map_equalIS7_SF_SK_SI_Lb1EEENS5_ISF_EEE25__emplace_unique_key_argsIS7_JRKNS_21piecewise_construct_tENS_5tupleIJRKS7_EEENSU_IJODnEEEEEENS_4pairINS_15__hash_iteratorIPNS_11__hash_nodeISF_PvEEEEbEERKT_DpOT0_, symObjAddr: 0x28E70, symBinAddr: 0x2DC40, symSize: 0x590 }
  - { offsetInCU: 0xDDF8D, offset: 0xDDF8D, size: 0x8, addend: 0x0, symName: __ZN3mlc8registry10DSOLibraryC2ENSt3__112basic_stringIcNS2_11char_traitsIcEENS2_9allocatorIcEEEE, symObjAddr: 0x296B0, symBinAddr: 0x2E480, symSize: 0xF0 }
  - { offsetInCU: 0xDE858, offset: 0xDE858, size: 0x8, addend: 0x0, symName: __ZNSt3__112__hash_tableINS_17__hash_value_typeINS_12basic_stringIcNS_11char_traitsIcEENS_9allocatorIcEEEENS_10unique_ptrIN3mlc8registry10DSOLibraryENS_14default_deleteISB_EEEEEENS_22__unordered_map_hasherIS7_SF_NS_4hashIS7_EENS_8equal_toIS7_EELb1EEENS_21__unordered_map_equalIS7_SF_SK_SI_Lb1EEENS5_ISF_EEE11__do_rehashILb1EEEvm, symObjAddr: 0x29400, symBinAddr: 0x2E1D0, symSize: 0x240 }
  - { offsetInCU: 0xDECE4, offset: 0xDECE4, size: 0x8, addend: 0x0, symName: __ZNSt3__110unique_ptrINS_11__hash_nodeINS_17__hash_value_typeINS_12basic_stringIcNS_11char_traitsIcEENS_9allocatorIcEEEENS0_IN3mlc8registry10DSOLibraryENS_14default_deleteISB_EEEEEEPvEENS_22__hash_node_destructorINS6_ISH_EEEEE5resetB7v160006EPSH_, symObjAddr: 0x29640, symBinAddr: 0x2E410, symSize: 0x70 }
  - { offsetInCU: 0x420F, offset: 0xE3418, size: 0x8, addend: 0x0, symName: '__ZN3mlc4core16FuncCallUnpackedINS_12_GLOBAL__N_13$_1EEEvPKNS_7FuncObjEiPKNS_7AnyViewEPNS_3AnyE', symObjAddr: 0x13F70, symBinAddr: 0x32990, symSize: 0x140 }
  - { offsetInCU: 0x45DF, offset: 0xE37E8, size: 0x8, addend: 0x0, symName: '__ZN3mlc4core16FuncCallUnpackedINS_12_GLOBAL__N_13$_2EEEvPKNS_7FuncObjEiPKNS_7AnyViewEPNS_3AnyE', symObjAddr: 0x142B0, symBinAddr: 0x32CD0, symSize: 0x140 }
  - { offsetInCU: 0x49C6, offset: 0xE3BCF, size: 0x8, addend: 0x0, symName: '__ZN3mlc4core16FuncCallUnpackedINS_12_GLOBAL__N_13$_3EEEvPKNS_7FuncObjEiPKNS_7AnyViewEPNS_3AnyE', symObjAddr: 0x145F0, symBinAddr: 0x33010, symSize: 0x590 }
  - { offsetInCU: 0x5F97, offset: 0xE51A0, size: 0x8, addend: 0x0, symName: '__ZN3mlc4core16FuncCallUnpackedINS_12_GLOBAL__N_13$_4EEEvPKNS_7FuncObjEiPKNS_7AnyViewEPNS_3AnyE', symObjAddr: 0x14E00, symBinAddr: 0x33820, symSize: 0x5B0 }
  - { offsetInCU: 0x7571, offset: 0xE677A, size: 0x8, addend: 0x0, symName: '__ZN3mlc4core16FuncCallUnpackedINS_12_GLOBAL__N_13$_5EEEvPKNS_7FuncObjEiPKNS_7AnyViewEPNS_3AnyE', symObjAddr: 0x15640, symBinAddr: 0x34060, symSize: 0x5B0 }
  - { offsetInCU: 0x8BD0, offset: 0xE7DD9, size: 0x8, addend: 0x0, symName: '__ZN3mlc4core16FuncCallUnpackedINS_12_GLOBAL__N_13$_6EEEvPKNS_7FuncObjEiPKNS_7AnyViewEPNS_3AnyE', symObjAddr: 0x15E70, symBinAddr: 0x34890, symSize: 0x6F0 }
  - { offsetInCU: 0xAA57, offset: 0xE9C60, size: 0x8, addend: 0x0, symName: '__ZN3mlc4core16FuncCallUnpackedINS_12_GLOBAL__N_13$_7EEEvPKNS_7FuncObjEiPKNS_7AnyViewEPNS_3AnyE', symObjAddr: 0x171A0, symBinAddr: 0x35210, symSize: 0x6F0 }
  - { offsetInCU: 0xC883, offset: 0xEBA8C, size: 0x8, addend: 0x0, symName: '__ZN3mlc4core16FuncCallUnpackedINS_12_GLOBAL__N_13$_8EEEvPKNS_7FuncObjEiPKNS_7AnyViewEPNS_3AnyE', symObjAddr: 0x17FB0, symBinAddr: 0x35B90, symSize: 0x640 }
  - { offsetInCU: 0xDFFC, offset: 0xED205, size: 0x8, addend: 0x0, symName: __ZN3mlc4core12ObjPtrGetterINS_12_GLOBAL__N_117ReflectionTestObjEEEiP12MLCTypeFieldPvP6MLCAny, symObjAddr: 0x4770, symBinAddr: 0x323E0, symSize: 0x20 }
  - { offsetInCU: 0xE089, offset: 0xED292, size: 0x8, addend: 0x0, symName: __ZN3mlc4core12ObjPtrSetterINS_12_GLOBAL__N_117ReflectionTestObjEEEiP12MLCTypeFieldPvP6MLCAny, symObjAddr: 0x4790, symBinAddr: 0x32400, symSize: 0x320 }
  - { offsetInCU: 0xEA94, offset: 0xEDC9D, size: 0x8, addend: 0x0, symName: __ZN3mlc4core16FuncCallUnpackedIPFNS_3RefINS_6ObjectEEEONSt3__112basic_stringIcNS5_11char_traitsIcEENS5_9allocatorIcEEEEOiEEEvPKNS_7FuncObjEiPKNS_7AnyViewEPNS_3AnyE, symObjAddr: 0x19410, symBinAddr: 0x36F20, symSize: 0xA30 }
  - { offsetInCU: 0x1159C, offset: 0xF07A5, size: 0x8, addend: 0x0, symName: __ZN3mlc4core16FuncCallUnpackedIZNS0_17FuncAllocatorImplIMNS_12_GLOBAL__N_117ReflectionTestObjEFivEvE3RunES6_EUlPS4_E_EEvPKNS_7FuncObjEiPKNS_7AnyViewEPNS_3AnyE, symObjAddr: 0x1A1A0, symBinAddr: 0x37CB0, symSize: 0x690 }
  - { offsetInCU: 0x12AA8, offset: 0xF1CB1, size: 0x8, addend: 0x0, symName: '__ZN3mlc4core16FuncCallUnpackedINS_12_GLOBAL__N_13$_9EEEvPKNS_7FuncObjEiPKNS_7AnyViewEPNS_3AnyE', symObjAddr: 0x1AB90, symBinAddr: 0x386A0, symSize: 0x260 }
  - { offsetInCU: 0x12FAE, offset: 0xF21B7, size: 0x8, addend: 0x0, symName: '__ZN3mlc4core16FuncCallUnpackedINS_12_GLOBAL__N_14$_10EEEvPKNS_7FuncObjEiPKNS_7AnyViewEPNS_3AnyE', symObjAddr: 0x1AE10, symBinAddr: 0x38920, symSize: 0x930 }
  - { offsetInCU: 0x14C09, offset: 0xF3E12, size: 0x8, addend: 0x0, symName: '__ZN3mlc4core16FuncCallUnpackedINS_12_GLOBAL__N_14$_11EEEvPKNS_7FuncObjEiPKNS_7AnyViewEPNS_3AnyE', symObjAddr: 0x1BAC0, symBinAddr: 0x394F0, symSize: 0x9C0 }
  - { offsetInCU: 0x169BE, offset: 0xF5BC7, size: 0x8, addend: 0x0, symName: '__ZN3mlc4core16FuncCallUnpackedINS_12_GLOBAL__N_13$_0EEEvPKNS_7FuncObjEiPKNS_7AnyViewEPNS_3AnyE', symObjAddr: 0x1C720, symBinAddr: 0x3A150, symSize: 0x6D0 }
  - { offsetInCU: 0x180ED, offset: 0xF72F6, size: 0x8, addend: 0x0, symName: '__ZN3mlc4core16FuncCallUnpackedIZNKS_12_GLOBAL__N_13$_0clENS_3StrEEUlNS_5UListEE_EEvPKNS_7FuncObjEiPKNS_7AnyViewEPNS_3AnyE', symObjAddr: 0x1D0A0, symBinAddr: 0x3AAD0, symSize: 0x530 }
  - { offsetInCU: 0x192ED, offset: 0xF84F6, size: 0x8, addend: 0x0, symName: '__ZN3mlc4core16FuncCallUnpackedIZNKS_12_GLOBAL__N_13$_0clENS_3StrEEUlNS_4ListINS_3AnyEEEE_EEvPKNS_7FuncObjEiPKNS_7AnyViewEPS6_', symObjAddr: 0x1DCD0, symBinAddr: 0x3B700, symSize: 0x530 }
  - { offsetInCU: 0x1A5DE, offset: 0xF97E7, size: 0x8, addend: 0x0, symName: '__ZN3mlc4core16FuncCallUnpackedIZNKS_12_GLOBAL__N_13$_0clENS_3StrEEUlNS_4ListINS5_IiEEEEE_EEvPKNS_7FuncObjEiPKNS_7AnyViewEPNS_3AnyE', symObjAddr: 0x1F8E0, symBinAddr: 0x3D310, symSize: 0x530 }
  - { offsetInCU: 0x1B7DE, offset: 0xFA9E7, size: 0x8, addend: 0x0, symName: '__ZN3mlc4core16FuncCallUnpackedIZNKS_12_GLOBAL__N_13$_0clENS_3StrEEUlNS_5UDictEE_EEvPKNS_7FuncObjEiPKNS_7AnyViewEPNS_3AnyE', symObjAddr: 0x21230, symBinAddr: 0x3EC60, symSize: 0x530 }
  - { offsetInCU: 0x1C9DE, offset: 0xFBBE7, size: 0x8, addend: 0x0, symName: '__ZN3mlc4core16FuncCallUnpackedIZNKS_12_GLOBAL__N_13$_0clENS_3StrEEUlNS_4DictIS4_NS_3AnyEEEE_EEvPKNS_7FuncObjEiPKNS_7AnyViewEPS6_', symObjAddr: 0x21F40, symBinAddr: 0x3F970, symSize: 0x530 }
  - { offsetInCU: 0x1DBDE, offset: 0xFCDE7, size: 0x8, addend: 0x0, symName: '__ZN3mlc4core16FuncCallUnpackedIZNKS_12_GLOBAL__N_13$_0clENS_3StrEEUlNS_4DictINS_3AnyES4_EEE_EEvPKNS_7FuncObjEiPKNS_7AnyViewEPS6_', symObjAddr: 0x23A40, symBinAddr: 0x41470, symSize: 0x530 }
  - { offsetInCU: 0x1EDDE, offset: 0xFDFE7, size: 0x8, addend: 0x0, symName: '__ZN3mlc4core16FuncCallUnpackedIZNKS_12_GLOBAL__N_13$_0clENS_3StrEEUlNS_4DictINS_3AnyES6_EEE_EEvPKNS_7FuncObjEiPKNS_7AnyViewEPS6_', symObjAddr: 0x25130, symBinAddr: 0x42B60, symSize: 0x530 }
  - { offsetInCU: 0x1FFDE, offset: 0xFF1E7, size: 0x8, addend: 0x0, symName: '__ZN3mlc4core16FuncCallUnpackedIZNKS_12_GLOBAL__N_13$_0clENS_3StrEEUlNS_4DictIS4_NS_4ListIiEEEEE_EEvPKNS_7FuncObjEiPKNS_7AnyViewEPNS_3AnyE', symObjAddr: 0x26480, symBinAddr: 0x43EB0, symSize: 0x530 }
  - { offsetInCU: 0x29A4D, offset: 0x108C56, size: 0x8, addend: 0x0, symName: __ZN3mlc6InitOfINS_12_GLOBAL__N_117ReflectionTestObjEJNSt3__112basic_stringIcNS3_11char_traitsIcEENS3_9allocatorIcEEEEiEEENS_3RefINS_6ObjectEEEDpOT0_, symObjAddr: 0x4C30, symBinAddr: 0x328A0, symSize: 0xE0 }
  - { offsetInCU: 0x3BEF8, offset: 0x11B101, size: 0x8, addend: 0x0, symName: __ZN3mlc12_GLOBAL__N_117ReflectionTestObj10_type_infoE, symObjAddr: 0x2D1538, symBinAddr: 0x68B98, symSize: 0x0 }
  - { offsetInCU: 0x3BF1C, offset: 0x11B125, size: 0x8, addend: 0x0, symName: __ZN3mlc12_GLOBAL__N_117ReflectionTestObj13_type_reflectE, symObjAddr: 0x2D1540, symBinAddr: 0x68BA0, symSize: 0x0 }
  - { offsetInCU: 0x3BF2F, offset: 0x11B138, size: 0x8, addend: 0x0, symName: __ZN3mlc12_GLOBAL__N_114ReflectionTest13_type_reflectE, symObjAddr: 0x2D1548, symBinAddr: 0x68BA8, symSize: 0x0 }
  - { offsetInCU: 0x3BFC3, offset: 0x11B1CC, size: 0x8, addend: 0x0, symName: __ZN3mlc12_GLOBAL__N_117ReflectionTestObj11_type_indexE, symObjAddr: 0x2D1544, symBinAddr: 0x68BA4, symSize: 0x0 }
  - { offsetInCU: 0x411F2, offset: 0x1203FB, size: 0x8, addend: 0x0, symName: __ZN3mlc4base16ReflectionHelper8StaticFnIRFNS_3RefINS_6ObjectEEEONSt3__112basic_stringIcNS6_11char_traitsIcEENS6_9allocatorIcEEEEOiEEERS1_PKcOT_, symObjAddr: 0x4AB0, symBinAddr: 0x32720, symSize: 0x180 }
  - { offsetInCU: 0x417E2, offset: 0x1209EB, size: 0x8, addend: 0x0, symName: __ZN3mlc4base16ReflectionHelper13PrepareMethodIRFNS_3RefINS_6ObjectEEEONSt3__112basic_stringIcNS6_11char_traitsIcEENS6_9allocatorIcEEEEOiEEE13MLCTypeMethodPKcOT_, symObjAddr: 0x192D0, symBinAddr: 0x36DE0, symSize: 0x140 }
  - { offsetInCU: 0x41F15, offset: 0x12111E, size: 0x8, addend: 0x0, symName: __ZN3mlc12_GLOBAL__N_117ReflectionTestObj8YPlusOneEv, symObjAddr: 0x4D10, symBinAddr: 0x32980, symSize: 0x10 }
  - { offsetInCU: 0x479C8, offset: 0x126BD1, size: 0x8, addend: 0x0, symName: __ZN3mlc4core8Func2StrIvJEE3RunIJEEENSt3__112basic_stringIcNS4_11char_traitsIcEENS4_9allocatorIcEEEENS4_16integer_sequenceImJXspT_EEEE, symObjAddr: 0x140D0, symBinAddr: 0x32AF0, symSize: 0x1E0 }
  - { offsetInCU: 0x48173, offset: 0x12737C, size: 0x8, addend: 0x0, symName: '__ZN3mlc4base22DefaultObjectAllocatorINS_4core8FuncImplINS_12_GLOBAL__N_13$_1EEEvE7DeleterEPv', symObjAddr: 0x140B0, symBinAddr: 0x32AD0, symSize: 0x20 }
  - { offsetInCU: 0x4822F, offset: 0x127438, size: 0x8, addend: 0x0, symName: __ZN3mlc4core8Func2StrIPvJEE3RunIJEEENSt3__112basic_stringIcNS5_11char_traitsIcEENS5_9allocatorIcEEEENS5_16integer_sequenceImJXspT_EEEE, symObjAddr: 0x14410, symBinAddr: 0x32E30, symSize: 0x1E0 }
  - { offsetInCU: 0x489C5, offset: 0x127BCE, size: 0x8, addend: 0x0, symName: '__ZN3mlc4base22DefaultObjectAllocatorINS_4core8FuncImplINS_12_GLOBAL__N_13$_2EEEvE7DeleterEPv', symObjAddr: 0x143F0, symBinAddr: 0x32E10, symSize: 0x20 }
  - { offsetInCU: 0x48B40, offset: 0x127D49, size: 0x8, addend: 0x0, symName: __ZN3mlc4core8Func2StrIiJiEE3RunIJLm0EEEENSt3__112basic_stringIcNS4_11char_traitsIcEENS4_9allocatorIcEEEENS4_16integer_sequenceImJXspT_EEEE, symObjAddr: 0x14BA0, symBinAddr: 0x335C0, symSize: 0x1F0 }
  - { offsetInCU: 0x492F2, offset: 0x1284FB, size: 0x8, addend: 0x0, symName: '__ZN3mlc4base22DefaultObjectAllocatorINS_4core8FuncImplINS_12_GLOBAL__N_13$_3EEEvE7DeleterEPv', symObjAddr: 0x14B80, symBinAddr: 0x335A0, symSize: 0x20 }
  - { offsetInCU: 0x49321, offset: 0x12852A, size: 0x8, addend: 0x0, symName: __ZN3mlc4core8Func2StrIiJiEE5ApplyILm0EEEvRNSt3__113basic_ostreamIcNS4_11char_traitsIcEEEE, symObjAddr: 0x14D90, symBinAddr: 0x337B0, symSize: 0x70 }
  - { offsetInCU: 0x4993C, offset: 0x128B45, size: 0x8, addend: 0x0, symName: __ZN3mlc4core8Func2StrIdJdEE3RunIJLm0EEEENSt3__112basic_stringIcNS4_11char_traitsIcEENS4_9allocatorIcEEEENS4_16integer_sequenceImJXspT_EEEE, symObjAddr: 0x153D0, symBinAddr: 0x33DF0, symSize: 0x1F0 }
  - { offsetInCU: 0x4A0EE, offset: 0x1292F7, size: 0x8, addend: 0x0, symName: '__ZN3mlc4base22DefaultObjectAllocatorINS_4core8FuncImplINS_12_GLOBAL__N_13$_4EEEvE7DeleterEPv', symObjAddr: 0x153B0, symBinAddr: 0x33DD0, symSize: 0x20 }
  - { offsetInCU: 0x4A11D, offset: 0x129326, size: 0x8, addend: 0x0, symName: __ZN3mlc4core8Func2StrIdJdEE5ApplyILm0EEEvRNSt3__113basic_ostreamIcNS4_11char_traitsIcEEEE, symObjAddr: 0x155C0, symBinAddr: 0x33FE0, symSize: 0x80 }
  - { offsetInCU: 0x4A800, offset: 0x129A09, size: 0x8, addend: 0x0, symName: __ZN3mlc4core8Func2StrIPvJS2_EE3RunIJLm0EEEENSt3__112basic_stringIcNS5_11char_traitsIcEENS5_9allocatorIcEEEENS5_16integer_sequenceImJXspT_EEEE, symObjAddr: 0x15C10, symBinAddr: 0x34630, symSize: 0x1F0 }
  - { offsetInCU: 0x4AFB2, offset: 0x12A1BB, size: 0x8, addend: 0x0, symName: '__ZN3mlc4base22DefaultObjectAllocatorINS_4core8FuncImplINS_12_GLOBAL__N_13$_5EEEvE7DeleterEPv', symObjAddr: 0x15BF0, symBinAddr: 0x34610, symSize: 0x20 }
  - { offsetInCU: 0x4AFE1, offset: 0x12A1EA, size: 0x8, addend: 0x0, symName: __ZN3mlc4core8Func2StrIPvJS2_EE5ApplyILm0EEEvRNSt3__113basic_ostreamIcNS5_11char_traitsIcEEEE, symObjAddr: 0x15E00, symBinAddr: 0x34820, symSize: 0x70 }
  - { offsetInCU: 0x4B71A, offset: 0x12A923, size: 0x8, addend: 0x0, symName: __ZN3mlc4core8Func2StrI10DLDataTypeJS2_EE3RunIJLm0EEEENSt3__112basic_stringIcNS5_11char_traitsIcEENS5_9allocatorIcEEEENS5_16integer_sequenceImJXspT_EEEE, symObjAddr: 0x16580, symBinAddr: 0x34FA0, symSize: 0x1F0 }
  - { offsetInCU: 0x4BECC, offset: 0x12B0D5, size: 0x8, addend: 0x0, symName: '__ZN3mlc4base22DefaultObjectAllocatorINS_4core8FuncImplINS_12_GLOBAL__N_13$_6EEEvE7DeleterEPv', symObjAddr: 0x16560, symBinAddr: 0x34F80, symSize: 0x20 }
  - { offsetInCU: 0x4BEFB, offset: 0x12B104, size: 0x8, addend: 0x0, symName: __ZN3mlc4core8Func2StrI10DLDataTypeJS2_EE5ApplyILm0EEEvRNSt3__113basic_ostreamIcNS5_11char_traitsIcEEEE, symObjAddr: 0x16770, symBinAddr: 0x35190, symSize: 0x80 }
  - { offsetInCU: 0x4C8EB, offset: 0x12BAF4, size: 0x8, addend: 0x0, symName: __ZN3mlc4core8Func2StrI8DLDeviceJS2_EE3RunIJLm0EEEENSt3__112basic_stringIcNS5_11char_traitsIcEENS5_9allocatorIcEEEENS5_16integer_sequenceImJXspT_EEEE, symObjAddr: 0x178B0, symBinAddr: 0x35920, symSize: 0x1F0 }
  - { offsetInCU: 0x4D0B2, offset: 0x12C2BB, size: 0x8, addend: 0x0, symName: '__ZN3mlc4base22DefaultObjectAllocatorINS_4core8FuncImplINS_12_GLOBAL__N_13$_7EEEvE7DeleterEPv', symObjAddr: 0x17890, symBinAddr: 0x35900, symSize: 0x20 }
  - { offsetInCU: 0x4D0E1, offset: 0x12C2EA, size: 0x8, addend: 0x0, symName: __ZN3mlc4core8Func2StrI8DLDeviceJS2_EE5ApplyILm0EEEvRNSt3__113basic_ostreamIcNS5_11char_traitsIcEEEE, symObjAddr: 0x17AA0, symBinAddr: 0x35B10, symSize: 0x80 }
  - { offsetInCU: 0x4D8EC, offset: 0x12CAF5, size: 0x8, addend: 0x0, symName: __ZN3mlc4core8Func2StrIPKcJS3_EE3RunIJLm0EEEENSt3__112basic_stringIcNS6_11char_traitsIcEENS6_9allocatorIcEEEENS6_16integer_sequenceImJXspT_EEEE, symObjAddr: 0x18610, symBinAddr: 0x361F0, symSize: 0x200 }
  - { offsetInCU: 0x4E0B3, offset: 0x12D2BC, size: 0x8, addend: 0x0, symName: '__ZN3mlc4base22DefaultObjectAllocatorINS_4core8FuncImplINS_12_GLOBAL__N_13$_8EEEvE7DeleterEPv', symObjAddr: 0x185F0, symBinAddr: 0x361D0, symSize: 0x20 }
  - { offsetInCU: 0x4E0E2, offset: 0x12D2EB, size: 0x8, addend: 0x0, symName: __ZN3mlc4core8Func2StrIPKcJS3_EE5ApplyILm0EEEvRNSt3__113basic_ostreamIcNS6_11char_traitsIcEEEE, symObjAddr: 0x18810, symBinAddr: 0x363F0, symSize: 0x90 }
  - { offsetInCU: 0x4E6F2, offset: 0x12D8FB, size: 0x8, addend: 0x0, symName: __ZN3mlc4core19ReflectGetterSetterINSt3__112basic_stringIcNS2_11char_traitsIcEENS2_9allocatorIcEEEEE6GetterEP12MLCTypeFieldPvP6MLCAny, symObjAddr: 0x188A0, symBinAddr: 0x36480, symSize: 0x210 }
  - { offsetInCU: 0x4EE5C, offset: 0x12E065, size: 0x8, addend: 0x0, symName: __ZN3mlc4core19ReflectGetterSetterINSt3__112basic_stringIcNS2_11char_traitsIcEENS2_9allocatorIcEEEEE6SetterEP12MLCTypeFieldPvP6MLCAny, symObjAddr: 0x18AB0, symBinAddr: 0x36690, symSize: 0x2E0 }
  - { offsetInCU: 0x4FC1E, offset: 0x12EE27, size: 0x8, addend: 0x0, symName: __ZN3mlc4base8Type2StrINSt3__112basic_stringIcNS2_11char_traitsIcEENS2_9allocatorIcEEEEE17GetTypeAnnotationEPNS2_6vectorIP11MLCTypeInfoNS6_ISC_EEEE, symObjAddr: 0x18D90, symBinAddr: 0x36970, symSize: 0x210 }
  - { offsetInCU: 0x5031E, offset: 0x12F527, size: 0x8, addend: 0x0, symName: __ZN3mlc4core19ReflectGetterSetterIiE6GetterEP12MLCTypeFieldPvP6MLCAny, symObjAddr: 0x19070, symBinAddr: 0x36B80, symSize: 0x50 }
  - { offsetInCU: 0x504C9, offset: 0x12F6D2, size: 0x8, addend: 0x0, symName: __ZN3mlc4base8Type2StrIiE17GetTypeAnnotationEPNSt3__16vectorIP11MLCTypeInfoNS3_9allocatorIS6_EEEE, symObjAddr: 0x190C0, symBinAddr: 0x36BD0, symSize: 0x210 }
  - { offsetInCU: 0x50CD4, offset: 0x12FEDD, size: 0x8, addend: 0x0, symName: __ZN3mlc4core8Func2StrINS_3RefINS_6ObjectEEEJONSt3__112basic_stringIcNS5_11char_traitsIcEENS5_9allocatorIcEEEEOiEE3RunIJLm0ELm1EEEESB_NS5_16integer_sequenceImJXspT_EEEE, symObjAddr: 0x19E60, symBinAddr: 0x37970, symSize: 0x210 }
  - { offsetInCU: 0x51323, offset: 0x13052C, size: 0x8, addend: 0x0, symName: __ZN3mlc4base22DefaultObjectAllocatorINS_4core8FuncImplIPFNS_3RefINS_6ObjectEEEONSt3__112basic_stringIcNS7_11char_traitsIcEENS7_9allocatorIcEEEEOiEEEvE7DeleterEPv, symObjAddr: 0x19E40, symBinAddr: 0x37950, symSize: 0x20 }
  - { offsetInCU: 0x51352, offset: 0x13055B, size: 0x8, addend: 0x0, symName: __ZN3mlc4core8Func2StrINS_3RefINS_6ObjectEEEJONSt3__112basic_stringIcNS5_11char_traitsIcEENS5_9allocatorIcEEEEOiEE5ApplyILm0EEEvRNS5_13basic_ostreamIcS8_EE, symObjAddr: 0x1A070, symBinAddr: 0x37B80, symSize: 0x70 }
  - { offsetInCU: 0x51822, offset: 0x130A2B, size: 0x8, addend: 0x0, symName: __ZN3mlc4core8Func2StrINS_3RefINS_6ObjectEEEJONSt3__112basic_stringIcNS5_11char_traitsIcEENS5_9allocatorIcEEEEOiEE5ApplyILm1EEEvRNS5_13basic_ostreamIcS8_EE, symObjAddr: 0x1A0E0, symBinAddr: 0x37BF0, symSize: 0x90 }
  - { offsetInCU: 0x51D77, offset: 0x130F80, size: 0x8, addend: 0x0, symName: __ZN3mlc4base22DefaultObjectAllocatorINS_12_GLOBAL__N_117ReflectionTestObjEvE7DeleterEPv, symObjAddr: 0x1A170, symBinAddr: 0x37C80, symSize: 0x30 }
  - { offsetInCU: 0x52153, offset: 0x13135C, size: 0x8, addend: 0x0, symName: __ZN3mlc4core8Func2StrIiJPNS_12_GLOBAL__N_117ReflectionTestObjEEE3RunIJLm0EEEENSt3__112basic_stringIcNS7_11char_traitsIcEENS7_9allocatorIcEEEENS7_16integer_sequenceImJXspT_EEEE, symObjAddr: 0x1A850, symBinAddr: 0x38360, symSize: 0x250 }
  - { offsetInCU: 0x529DE, offset: 0x131BE7, size: 0x8, addend: 0x0, symName: __ZN3mlc4base8Type2StrIPNS_12_GLOBAL__N_117ReflectionTestObjEE3RunEv, symObjAddr: 0x1AAA0, symBinAddr: 0x385B0, symSize: 0xF0 }
  - { offsetInCU: 0x53124, offset: 0x13232D, size: 0x8, addend: 0x0, symName: __ZN3mlc4base22DefaultObjectAllocatorINS_4core8FuncImplIZNS2_17FuncAllocatorImplIMNS_12_GLOBAL__N_117ReflectionTestObjEFivEvE3RunES8_EUlPS6_E_EEvE7DeleterEPv, symObjAddr: 0x1A830, symBinAddr: 0x38340, symSize: 0x20 }
  - { offsetInCU: 0x5321C, offset: 0x132425, size: 0x8, addend: 0x0, symName: '__ZN3mlc4base22DefaultObjectAllocatorINS_4core8FuncImplINS_12_GLOBAL__N_13$_9EEEvE7DeleterEPv', symObjAddr: 0x1ADF0, symBinAddr: 0x38900, symSize: 0x20 }
  - { offsetInCU: 0x533C1, offset: 0x1325CA, size: 0x8, addend: 0x0, symName: __ZN3mlc4core8Func2StrIvJPNS_7FuncObjEEE3RunIJLm0EEEENSt3__112basic_stringIcNS6_11char_traitsIcEENS6_9allocatorIcEEEENS6_16integer_sequenceImJXspT_EEEE, symObjAddr: 0x1B760, symBinAddr: 0x39270, symSize: 0x1F0 }
  - { offsetInCU: 0x53ED8, offset: 0x1330E1, size: 0x8, addend: 0x0, symName: '__ZN3mlc4base22DefaultObjectAllocatorINS_4core8FuncImplINS_12_GLOBAL__N_14$_10EEEvE7DeleterEPv', symObjAddr: 0x1B740, symBinAddr: 0x39250, symSize: 0x20 }
  - { offsetInCU: 0x53F07, offset: 0x133110, size: 0x8, addend: 0x0, symName: __ZN3mlc4core8Func2StrIvJPNS_7FuncObjEEE5ApplyILm0EEEvRNSt3__113basic_ostreamIcNS6_11char_traitsIcEEEE, symObjAddr: 0x1B950, symBinAddr: 0x39460, symSize: 0x90 }
  - { offsetInCU: 0x54333, offset: 0x13353C, size: 0x8, addend: 0x0, symName: __ZN3mlc4core8Func2StrINS_3AnyEJPNS_7FuncObjEEE3RunIJLm0EEEENSt3__112basic_stringIcNS7_11char_traitsIcEENS7_9allocatorIcEEEENS7_16integer_sequenceImJXspT_EEEE, symObjAddr: 0x1C4A0, symBinAddr: 0x39ED0, symSize: 0x1F0 }
  - { offsetInCU: 0x54AE5, offset: 0x133CEE, size: 0x8, addend: 0x0, symName: '__ZN3mlc4base22DefaultObjectAllocatorINS_4core8FuncImplINS_12_GLOBAL__N_14$_11EEEvE7DeleterEPv', symObjAddr: 0x1C480, symBinAddr: 0x39EB0, symSize: 0x20 }
  - { offsetInCU: 0x54B14, offset: 0x133D1D, size: 0x8, addend: 0x0, symName: __ZN3mlc4core8Func2StrINS_3AnyEJPNS_7FuncObjEEE5ApplyILm0EEEvRNSt3__113basic_ostreamIcNS7_11char_traitsIcEEEE, symObjAddr: 0x1C690, symBinAddr: 0x3A0C0, symSize: 0x90 }
  - { offsetInCU: 0x55142, offset: 0x13434B, size: 0x8, addend: 0x0, symName: __ZZNK3mlc7AnyView4CastINS_3StrEEET_NS_4base3tag6ObjPtrEENKUlvE_clEv, symObjAddr: 0x23790, symBinAddr: 0x411C0, symSize: 0x2B0 }
  - { offsetInCU: 0x55870, offset: 0x134A79, size: 0x8, addend: 0x0, symName: __ZN3mlc4core8Func2StrINS_4FuncEJNS_3StrEEE3RunIJLm0EEEENSt3__112basic_stringIcNS6_11char_traitsIcEENS6_9allocatorIcEEEENS6_16integer_sequenceImJXspT_EEEE, symObjAddr: 0x1CE10, symBinAddr: 0x3A840, symSize: 0x200 }
  - { offsetInCU: 0x56037, offset: 0x135240, size: 0x8, addend: 0x0, symName: __ZN3mlc4base8Type2StrINS_3RefINS_6StrObjEEEE3RunEv, symObjAddr: 0x23660, symBinAddr: 0x41090, symSize: 0x130 }
  - { offsetInCU: 0x5692B, offset: 0x135B34, size: 0x8, addend: 0x0, symName: __ZN3mlc4base18ObjectRefDummyRootD2Ev, symObjAddr: 0x1D970, symBinAddr: 0x3B3A0, symSize: 0x40 }
  - { offsetInCU: 0x569C6, offset: 0x135BCF, size: 0x8, addend: 0x0, symName: '__ZN3mlc4core16FuncCallUnpackedINS_12_GLOBAL__N_13$_0EEEvPKNS_7FuncObjEiPKNS_7AnyViewEPNS_3AnyE.cold.1', symObjAddr: 0x280F0, symBinAddr: 0x55C60, symSize: 0x60 }
  - { offsetInCU: 0x56A68, offset: 0x135C71, size: 0x8, addend: 0x0, symName: '__ZN3mlc4base22DefaultObjectAllocatorINS_4core8FuncImplINS_12_GLOBAL__N_13$_0EEEvE7DeleterEPv', symObjAddr: 0x1CDF0, symBinAddr: 0x3A820, symSize: 0x20 }
  - { offsetInCU: 0x56A9E, offset: 0x135CA7, size: 0x8, addend: 0x0, symName: __ZN3mlc4core8Func2StrINS_4FuncEJNS_3StrEEE5ApplyILm0EEEvRNSt3__113basic_ostreamIcNS6_11char_traitsIcEEEE, symObjAddr: 0x1D010, symBinAddr: 0x3AA40, symSize: 0x90 }
  - { offsetInCU: 0x57144, offset: 0x13634D, size: 0x8, addend: 0x0, symName: __ZZNK3mlc7AnyView4CastINS_5UListEEET_NS_4base3tag6ObjPtrEENKUlvE_clEv, symObjAddr: 0x1DA90, symBinAddr: 0x3B4C0, symSize: 0x240 }
  - { offsetInCU: 0x57799, offset: 0x1369A2, size: 0x8, addend: 0x0, symName: __ZN3mlc4core8Func2StrINS_5UListEJS2_EE3RunIJLm0EEEENSt3__112basic_stringIcNS5_11char_traitsIcEENS5_9allocatorIcEEEENS5_16integer_sequenceImJXspT_EEEE, symObjAddr: 0x1D5F0, symBinAddr: 0x3B020, symSize: 0x210 }
  - { offsetInCU: 0x57DCD, offset: 0x136FD6, size: 0x8, addend: 0x0, symName: __ZN3mlc4base8Type2StrINS_3RefINS_8UListObjEEEE3RunEv, symObjAddr: 0x1D9B0, symBinAddr: 0x3B3E0, symSize: 0xE0 }
  - { offsetInCU: 0x58390, offset: 0x137599, size: 0x8, addend: 0x0, symName: '__ZN3mlc4core16FuncCallUnpackedIZNKS_12_GLOBAL__N_13$_0clENS_3StrEEUlNS_5UListEE_EEvPKNS_7FuncObjEiPKNS_7AnyViewEPNS_3AnyE.cold.1', symObjAddr: 0x28150, symBinAddr: 0x55CC0, symSize: 0x60 }
  - { offsetInCU: 0x58432, offset: 0x13763B, size: 0x8, addend: 0x0, symName: __ZN3mlc4base8Type2StrINS_5UListEE3RunEv, symObjAddr: 0x1D890, symBinAddr: 0x3B2C0, symSize: 0xE0 }
  - { offsetInCU: 0x58B59, offset: 0x137D62, size: 0x8, addend: 0x0, symName: '__ZN3mlc4base22DefaultObjectAllocatorINS_4core8FuncImplIZNKS_12_GLOBAL__N_13$_0clENS_3StrEEUlNS_5UListEE_EEvE7DeleterEPv', symObjAddr: 0x1D5D0, symBinAddr: 0x3B000, symSize: 0x20 }
  - { offsetInCU: 0x58B88, offset: 0x137D91, size: 0x8, addend: 0x0, symName: __ZN3mlc4core8Func2StrINS_5UListEJS2_EE5ApplyILm0EEEvRNSt3__113basic_ostreamIcNS5_11char_traitsIcEEEE, symObjAddr: 0x1D800, symBinAddr: 0x3B230, symSize: 0x90 }
  - { offsetInCU: 0x590A1, offset: 0x1382AA, size: 0x8, addend: 0x0, symName: __ZZNK3mlc7AnyView4CastINS_4ListINS_3AnyEEEEET_NS_4base3tag6ObjPtrEENKUlvE_clEv, symObjAddr: 0x1E680, symBinAddr: 0x3C0B0, symSize: 0x600 }
  - { offsetInCU: 0x5A474, offset: 0x13967D, size: 0x8, addend: 0x0, symName: __ZN3mlc4core8Func2StrINS_4ListINS_3AnyEEEJS4_EE3RunIJLm0EEEENSt3__112basic_stringIcNS7_11char_traitsIcEENS7_9allocatorIcEEEENS7_16integer_sequenceImJXspT_EEEE, symObjAddr: 0x1E220, symBinAddr: 0x3BC50, symSize: 0x210 }
  - { offsetInCU: 0x5AAA8, offset: 0x139CB1, size: 0x8, addend: 0x0, symName: __ZN3mlc4base8Type2StrINS_3RefINS_7ListObjINS_3AnyEEEEEE3RunEv, symObjAddr: 0x1E5A0, symBinAddr: 0x3BFD0, symSize: 0xE0 }
  - { offsetInCU: 0x5B06B, offset: 0x13A274, size: 0x8, addend: 0x0, symName: '__ZN3mlc4core16FuncCallUnpackedIZNKS_12_GLOBAL__N_13$_0clENS_3StrEEUlNS_4ListINS_3AnyEEEE_EEvPKNS_7FuncObjEiPKNS_7AnyViewEPS6_.cold.1', symObjAddr: 0x281B0, symBinAddr: 0x55D20, symSize: 0x60 }
  - { offsetInCU: 0x5B10D, offset: 0x13A316, size: 0x8, addend: 0x0, symName: __ZN3mlc4base8Type2StrINS_4ListINS_3AnyEEEE3RunEv, symObjAddr: 0x1E4C0, symBinAddr: 0x3BEF0, symSize: 0xE0 }
  - { offsetInCU: 0x5B834, offset: 0x13AA3D, size: 0x8, addend: 0x0, symName: '__ZN3mlc4base22DefaultObjectAllocatorINS_4core8FuncImplIZNKS_12_GLOBAL__N_13$_0clENS_3StrEEUlNS_4ListINS_3AnyEEEE_EEvE7DeleterEPv', symObjAddr: 0x1E200, symBinAddr: 0x3BC30, symSize: 0x20 }
  - { offsetInCU: 0x5B863, offset: 0x13AA6C, size: 0x8, addend: 0x0, symName: __ZN3mlc4core8Func2StrINS_4ListINS_3AnyEEEJS4_EE5ApplyILm0EEEvRNSt3__113basic_ostreamIcNS7_11char_traitsIcEEEE, symObjAddr: 0x1E430, symBinAddr: 0x3BE60, symSize: 0x90 }
  - { offsetInCU: 0x5BBBB, offset: 0x13ADC4, size: 0x8, addend: 0x0, symName: __ZN3mlc4base8Type2StrINS_7ListObjINS_3AnyEEEE3RunEv, symObjAddr: 0x1EC80, symBinAddr: 0x3C6B0, symSize: 0xE0 }
  - { offsetInCU: 0x5C4E3, offset: 0x13B6EC, size: 0x8, addend: 0x0, symName: __ZN3mlc4core15NestedTypeError8NewFrameENSt3__112basic_stringIcNS2_11char_traitsIcEENS2_9allocatorIcEEEE, symObjAddr: 0x1F170, symBinAddr: 0x3CBA0, symSize: 0xD0 }
  - { offsetInCU: 0x5C9D0, offset: 0x13BBD9, size: 0x8, addend: 0x0, symName: __ZN3mlc4core15NestedTypeErrorC1ERKS1_, symObjAddr: 0x1F240, symBinAddr: 0x3CC70, symSize: 0x50 }
  - { offsetInCU: 0x5CA63, offset: 0x13BC6C, size: 0x8, addend: 0x0, symName: __ZN3mlc4core15NestedTypeErrorD1Ev, symObjAddr: 0x1F290, symBinAddr: 0x3CCC0, symSize: 0x80 }
  - { offsetInCU: 0x5CEC5, offset: 0x13C0CE, size: 0x8, addend: 0x0, symName: __ZNK3mlc4core15NestedTypeError6FormatERNSt3__113basic_ostreamIcNS2_11char_traitsIcEEEENS2_12basic_stringIcS5_NS2_9allocatorIcEEEE, symObjAddr: 0x1EDE0, symBinAddr: 0x3C810, symSize: 0x390 }
  - { offsetInCU: 0x5D72C, offset: 0x13C935, size: 0x8, addend: 0x0, symName: __ZN3mlc4base8Type2StrIPNS_7ListObjINS_3AnyEEEE3RunEv, symObjAddr: 0x1ED60, symBinAddr: 0x3C790, symSize: 0x80 }
  - { offsetInCU: 0x5DE3F, offset: 0x13D048, size: 0x8, addend: 0x0, symName: __ZNSt3__16vectorIN3mlc4core15NestedTypeError5FrameENS_9allocatorIS4_EEE21__push_back_slow_pathIS4_EEvOT_, symObjAddr: 0x1F3E0, symBinAddr: 0x3CE10, symSize: 0x1E0 }
  - { offsetInCU: 0x5E7A3, offset: 0x13D9AC, size: 0x8, addend: 0x0, symName: __ZN3mlc4core15NestedTypeError5FrameD1Ev, symObjAddr: 0x1F3A0, symBinAddr: 0x3CDD0, symSize: 0x40 }
  - { offsetInCU: 0x5EA6D, offset: 0x13DC76, size: 0x8, addend: 0x0, symName: __ZNSt3__16vectorIN3mlc4core15NestedTypeError5FrameENS_9allocatorIS4_EEEC2ERKS7_, symObjAddr: 0x1F5D0, symBinAddr: 0x3D000, symSize: 0x140 }
  - { offsetInCU: 0x5EF26, offset: 0x13E12F, size: 0x8, addend: 0x0, symName: __ZN3mlc4core15NestedTypeErrorD0Ev, symObjAddr: 0x1F310, symBinAddr: 0x3CD40, symSize: 0x90 }
  - { offsetInCU: 0x5F5CB, offset: 0x13E7D4, size: 0x8, addend: 0x0, symName: __ZNKSt3__16vectorIN3mlc4core15NestedTypeError5FrameENS_9allocatorIS4_EEE20__throw_length_errorB7v160006Ev, symObjAddr: 0x1F5C0, symBinAddr: 0x3CFF0, symSize: 0x10 }
  - { offsetInCU: 0x5F5F4, offset: 0x13E7FD, size: 0x8, addend: 0x0, symName: __ZNSt3__16vectorIN3mlc4core15NestedTypeError5FrameENS_9allocatorIS4_EEEC2ERKS7_, symObjAddr: 0x1F5D0, symBinAddr: 0x3D000, symSize: 0x140 }
  - { offsetInCU: 0x5F766, offset: 0x13E96F, size: 0x8, addend: 0x0, symName: __ZNSt3__19allocatorIN3mlc4core15NestedTypeError5FrameEE9constructB7v160006IS4_JRS4_EEEvPT_DpOT0_, symObjAddr: 0x1F810, symBinAddr: 0x3D240, symSize: 0xC0 }
  - { offsetInCU: 0x5FB96, offset: 0x13ED9F, size: 0x8, addend: 0x0, symName: __ZNSt3__128__exception_guard_exceptionsINS_29_AllocatorDestroyRangeReverseINS_9allocatorIN3mlc4core15NestedTypeError5FrameEEEPS6_EEED1B7v160006Ev, symObjAddr: 0x1F7B0, symBinAddr: 0x3D1E0, symSize: 0x60 }
  - { offsetInCU: 0x5FEEE, offset: 0x13F0F7, size: 0x8, addend: 0x0, symName: __ZNSt3__128__exception_guard_exceptionsINS_6vectorIN3mlc4core15NestedTypeError5FrameENS_9allocatorIS5_EEE16__destroy_vectorEED1B7v160006Ev, symObjAddr: 0x1F710, symBinAddr: 0x3D140, symSize: 0xA0 }
  - { offsetInCU: 0x605E6, offset: 0x13F7EF, size: 0x8, addend: 0x0, symName: __ZNKSt3__16vectorIN3mlc7AnyViewENS_9allocatorIS2_EEE20__throw_length_errorB7v160006Ev, symObjAddr: 0x1F8D0, symBinAddr: 0x3D300, symSize: 0x10 }
  - { offsetInCU: 0x6060F, offset: 0x13F818, size: 0x8, addend: 0x0, symName: '__ZN3mlc4core16FuncCallUnpackedIZNKS_12_GLOBAL__N_13$_0clENS_3StrEEUlNS_4ListINS5_IiEEEEE_EEvPKNS_7FuncObjEiPKNS_7AnyViewEPNS_3AnyE', symObjAddr: 0x1F8E0, symBinAddr: 0x3D310, symSize: 0x530 }
  - { offsetInCU: 0x6061A, offset: 0x13F823, size: 0x8, addend: 0x0, symName: __ZNSt3__19allocatorIN3mlc4core15NestedTypeError5FrameEE9constructB7v160006IS4_JRS4_EEEvPT_DpOT0_.cold.1, symObjAddr: 0x28210, symBinAddr: 0x55D80, symSize: 0x20 }
  - { offsetInCU: 0x60909, offset: 0x13FB12, size: 0x8, addend: 0x0, symName: __ZZNK3mlc7AnyView4CastINS_4ListINS2_IiEEEEEET_NS_4base3tag6ObjPtrEENKUlvE_clEv, symObjAddr: 0x20370, symBinAddr: 0x3DDA0, symSize: 0xC10 }
  - { offsetInCU: 0x62F24, offset: 0x14212D, size: 0x8, addend: 0x0, symName: __ZN3mlc4core8Func2StrINS_4ListINS2_IiEEEEJS4_EE3RunIJLm0EEEENSt3__112basic_stringIcNS7_11char_traitsIcEENS7_9allocatorIcEEEENS7_16integer_sequenceImJXspT_EEEE, symObjAddr: 0x1FE30, symBinAddr: 0x3D860, symSize: 0x210 }
  - { offsetInCU: 0x63558, offset: 0x142761, size: 0x8, addend: 0x0, symName: __ZN3mlc4base8Type2StrINS_3RefINS_7ListObjINS_4ListIiEEEEEEE3RunEv, symObjAddr: 0x20290, symBinAddr: 0x3DCC0, symSize: 0xE0 }
  - { offsetInCU: 0x63B1B, offset: 0x142D24, size: 0x8, addend: 0x0, symName: '__ZN3mlc4core16FuncCallUnpackedIZNKS_12_GLOBAL__N_13$_0clENS_3StrEEUlNS_4ListINS5_IiEEEEE_EEvPKNS_7FuncObjEiPKNS_7AnyViewEPNS_3AnyE.cold.1', symObjAddr: 0x28230, symBinAddr: 0x55DA0, symSize: 0x60 }
  - { offsetInCU: 0x63BBD, offset: 0x142DC6, size: 0x8, addend: 0x0, symName: __ZN3mlc4base8Type2StrINS_4ListINS2_IiEEEEE3RunEv, symObjAddr: 0x200D0, symBinAddr: 0x3DB00, symSize: 0xE0 }
  - { offsetInCU: 0x64180, offset: 0x143389, size: 0x8, addend: 0x0, symName: '__ZN3mlc4base22DefaultObjectAllocatorINS_4core8FuncImplIZNKS_12_GLOBAL__N_13$_0clENS_3StrEEUlNS_4ListINS7_IiEEEEE_EEvE7DeleterEPv', symObjAddr: 0x1FE10, symBinAddr: 0x3D840, symSize: 0x20 }
  - { offsetInCU: 0x641AF, offset: 0x1433B8, size: 0x8, addend: 0x0, symName: __ZN3mlc4core8Func2StrINS_4ListINS2_IiEEEEJS4_EE5ApplyILm0EEEvRNSt3__113basic_ostreamIcNS7_11char_traitsIcEEEE, symObjAddr: 0x20040, symBinAddr: 0x3DA70, symSize: 0x90 }
  - { offsetInCU: 0x64507, offset: 0x143710, size: 0x8, addend: 0x0, symName: __ZN3mlc4base8Type2StrINS_4ListIiEEE3RunEv, symObjAddr: 0x201B0, symBinAddr: 0x3DBE0, symSize: 0xE0 }
  - { offsetInCU: 0x64C2E, offset: 0x143E37, size: 0x8, addend: 0x0, symName: __ZN3mlc4base8Type2StrINS_7ListObjINS_4ListIiEEEEE3RunEv, symObjAddr: 0x20F80, symBinAddr: 0x3E9B0, symSize: 0xE0 }
  - { offsetInCU: 0x65348, offset: 0x144551, size: 0x8, addend: 0x0, symName: __ZN3mlc4core15NestedTypeError8NewIndexENS_7AnyViewE, symObjAddr: 0x210E0, symBinAddr: 0x3EB10, symSize: 0x150 }
  - { offsetInCU: 0x6588C, offset: 0x144A95, size: 0x8, addend: 0x0, symName: __ZN3mlc4base8Type2StrIPNS_7ListObjINS_4ListIiEEEEE3RunEv, symObjAddr: 0x21060, symBinAddr: 0x3EA90, symSize: 0x80 }
  - { offsetInCU: 0x66067, offset: 0x145270, size: 0x8, addend: 0x0, symName: __ZZNK3mlc7AnyView4CastINS_5UDictEEET_NS_4base3tag6ObjPtrEENKUlvE_clEv, symObjAddr: 0x21D00, symBinAddr: 0x3F730, symSize: 0x240 }
  - { offsetInCU: 0x666BC, offset: 0x1458C5, size: 0x8, addend: 0x0, symName: __ZN3mlc4core8Func2StrINS_5UDictEJS2_EE3RunIJLm0EEEENSt3__112basic_stringIcNS5_11char_traitsIcEENS5_9allocatorIcEEEENS5_16integer_sequenceImJXspT_EEEE, symObjAddr: 0x21780, symBinAddr: 0x3F1B0, symSize: 0x210 }
  - { offsetInCU: 0x66CF0, offset: 0x145EF9, size: 0x8, addend: 0x0, symName: __ZN3mlc4base8Type2StrINS_3RefINS_8UDictObjEEEE3RunEv, symObjAddr: 0x21C20, symBinAddr: 0x3F650, symSize: 0xE0 }
  - { offsetInCU: 0x672B3, offset: 0x1464BC, size: 0x8, addend: 0x0, symName: '__ZN3mlc4core16FuncCallUnpackedIZNKS_12_GLOBAL__N_13$_0clENS_3StrEEUlNS_5UDictEE_EEvPKNS_7FuncObjEiPKNS_7AnyViewEPNS_3AnyE.cold.1', symObjAddr: 0x28290, symBinAddr: 0x55E00, symSize: 0x60 }
  - { offsetInCU: 0x67355, offset: 0x14655E, size: 0x8, addend: 0x0, symName: __ZN3mlc4base8Type2StrINS_5UDictEE3RunEv, symObjAddr: 0x21A20, symBinAddr: 0x3F450, symSize: 0x200 }
  - { offsetInCU: 0x683F4, offset: 0x1475FD, size: 0x8, addend: 0x0, symName: '__ZN3mlc4base22DefaultObjectAllocatorINS_4core8FuncImplIZNKS_12_GLOBAL__N_13$_0clENS_3StrEEUlNS_5UDictEE_EEvE7DeleterEPv', symObjAddr: 0x21760, symBinAddr: 0x3F190, symSize: 0x20 }
  - { offsetInCU: 0x68423, offset: 0x14762C, size: 0x8, addend: 0x0, symName: __ZN3mlc4core8Func2StrINS_5UDictEJS2_EE5ApplyILm0EEEvRNSt3__113basic_ostreamIcNS5_11char_traitsIcEEEE, symObjAddr: 0x21990, symBinAddr: 0x3F3C0, symSize: 0x90 }
  - { offsetInCU: 0x6893C, offset: 0x147B45, size: 0x8, addend: 0x0, symName: __ZZNK3mlc7AnyView4CastINS_4DictINS_3StrENS_3AnyEEEEET_NS_4base3tag6ObjPtrEENKUlvE_clEv, symObjAddr: 0x22A30, symBinAddr: 0x40460, symSize: 0x6D0 }
  - { offsetInCU: 0x69DD2, offset: 0x148FDB, size: 0x8, addend: 0x0, symName: __ZN3mlc4core8Func2StrINS_4DictINS_3StrENS_3AnyEEEJS5_EE3RunIJLm0EEEENSt3__112basic_stringIcNS8_11char_traitsIcEENS8_9allocatorIcEEEENS8_16integer_sequenceImJXspT_EEEE, symObjAddr: 0x22490, symBinAddr: 0x3FEC0, symSize: 0x210 }
  - { offsetInCU: 0x6A406, offset: 0x14960F, size: 0x8, addend: 0x0, symName: __ZN3mlc4base8Type2StrINS_3RefINS_7DictObjINS_3StrENS_3AnyEEEEEE3RunEv, symObjAddr: 0x22950, symBinAddr: 0x40380, symSize: 0xE0 }
  - { offsetInCU: 0x6A9C9, offset: 0x149BD2, size: 0x8, addend: 0x0, symName: '__ZN3mlc4core16FuncCallUnpackedIZNKS_12_GLOBAL__N_13$_0clENS_3StrEEUlNS_4DictIS4_NS_3AnyEEEE_EEvPKNS_7FuncObjEiPKNS_7AnyViewEPS6_.cold.1', symObjAddr: 0x282F0, symBinAddr: 0x55E60, symSize: 0x60 }
  - { offsetInCU: 0x6AA6B, offset: 0x149C74, size: 0x8, addend: 0x0, symName: __ZN3mlc4base8Type2StrINS_4DictINS_3StrENS_3AnyEEEE3RunEv, symObjAddr: 0x22730, symBinAddr: 0x40160, symSize: 0x220 }
  - { offsetInCU: 0x6BB1E, offset: 0x14AD27, size: 0x8, addend: 0x0, symName: '__ZN3mlc4base22DefaultObjectAllocatorINS_4core8FuncImplIZNKS_12_GLOBAL__N_13$_0clENS_3StrEEUlNS_4DictIS6_NS_3AnyEEEE_EEvE7DeleterEPv', symObjAddr: 0x22470, symBinAddr: 0x3FEA0, symSize: 0x20 }
  - { offsetInCU: 0x6BB4D, offset: 0x14AD56, size: 0x8, addend: 0x0, symName: __ZN3mlc4core8Func2StrINS_4DictINS_3StrENS_3AnyEEEJS5_EE5ApplyILm0EEEvRNSt3__113basic_ostreamIcNS8_11char_traitsIcEEEE, symObjAddr: 0x226A0, symBinAddr: 0x400D0, symSize: 0x90 }
  - { offsetInCU: 0x6BEA5, offset: 0x14B0AE, size: 0x8, addend: 0x0, symName: __ZN3mlc4base8Type2StrINS_7DictObjINS_3StrENS_3AnyEEEE3RunEv, symObjAddr: 0x23100, symBinAddr: 0x40B30, symSize: 0x220 }
  - { offsetInCU: 0x6D189, offset: 0x14C392, size: 0x8, addend: 0x0, symName: __ZZN3mlc4core15NestedTypeCheckINS_4DictINS_3StrENS_3AnyEEEE3RunERK6MLCAnyENKUlPhPS7_SB_E_clESA_SB_SB_, symObjAddr: 0x233A0, symBinAddr: 0x40DD0, symSize: 0x2C0 }
  - { offsetInCU: 0x6DD3C, offset: 0x14CF45, size: 0x8, addend: 0x0, symName: __ZN3mlc4base8Type2StrIPNS_7DictObjINS_3StrENS_3AnyEEEE3RunEv, symObjAddr: 0x23320, symBinAddr: 0x40D50, symSize: 0x80 }
  - { offsetInCU: 0x6E21B, offset: 0x14D424, size: 0x8, addend: 0x0, symName: __ZZNK3mlc7AnyView4CastINS_4DictINS_3AnyENS_3StrEEEEET_NS_4base3tag6ObjPtrEENKUlvE_clEv, symObjAddr: 0x24530, symBinAddr: 0x41F60, symSize: 0x6D0 }
  - { offsetInCU: 0x6F6B1, offset: 0x14E8BA, size: 0x8, addend: 0x0, symName: __ZN3mlc4core8Func2StrINS_4DictINS_3AnyENS_3StrEEEJS5_EE3RunIJLm0EEEENSt3__112basic_stringIcNS8_11char_traitsIcEENS8_9allocatorIcEEEENS8_16integer_sequenceImJXspT_EEEE, symObjAddr: 0x23F90, symBinAddr: 0x419C0, symSize: 0x210 }
  - { offsetInCU: 0x6FCE5, offset: 0x14EEEE, size: 0x8, addend: 0x0, symName: __ZN3mlc4base8Type2StrINS_3RefINS_7DictObjINS_3AnyENS_3StrEEEEEE3RunEv, symObjAddr: 0x24450, symBinAddr: 0x41E80, symSize: 0xE0 }
  - { offsetInCU: 0x702A8, offset: 0x14F4B1, size: 0x8, addend: 0x0, symName: '__ZN3mlc4core16FuncCallUnpackedIZNKS_12_GLOBAL__N_13$_0clENS_3StrEEUlNS_4DictINS_3AnyES4_EEE_EEvPKNS_7FuncObjEiPKNS_7AnyViewEPS6_.cold.1', symObjAddr: 0x28350, symBinAddr: 0x55EC0, symSize: 0x60 }
  - { offsetInCU: 0x7034A, offset: 0x14F553, size: 0x8, addend: 0x0, symName: __ZN3mlc4base8Type2StrINS_4DictINS_3AnyENS_3StrEEEE3RunEv, symObjAddr: 0x24230, symBinAddr: 0x41C60, symSize: 0x220 }
  - { offsetInCU: 0x713F2, offset: 0x1505FB, size: 0x8, addend: 0x0, symName: '__ZN3mlc4base22DefaultObjectAllocatorINS_4core8FuncImplIZNKS_12_GLOBAL__N_13$_0clENS_3StrEEUlNS_4DictINS_3AnyES6_EEE_EEvE7DeleterEPv', symObjAddr: 0x23F70, symBinAddr: 0x419A0, symSize: 0x20 }
  - { offsetInCU: 0x71421, offset: 0x15062A, size: 0x8, addend: 0x0, symName: __ZN3mlc4core8Func2StrINS_4DictINS_3AnyENS_3StrEEEJS5_EE5ApplyILm0EEEvRNSt3__113basic_ostreamIcNS8_11char_traitsIcEEEE, symObjAddr: 0x241A0, symBinAddr: 0x41BD0, symSize: 0x90 }
  - { offsetInCU: 0x71779, offset: 0x150982, size: 0x8, addend: 0x0, symName: __ZN3mlc4base8Type2StrINS_7DictObjINS_3AnyENS_3StrEEEE3RunEv, symObjAddr: 0x24C00, symBinAddr: 0x42630, symSize: 0x220 }
  - { offsetInCU: 0x72978, offset: 0x151B81, size: 0x8, addend: 0x0, symName: __ZZN3mlc4core15NestedTypeCheckINS_4DictINS_3AnyENS_3StrEEEE3RunERK6MLCAnyENKUlPhPS7_SB_E_clESA_SB_SB_, symObjAddr: 0x24EA0, symBinAddr: 0x428D0, symSize: 0x290 }
  - { offsetInCU: 0x73261, offset: 0x15246A, size: 0x8, addend: 0x0, symName: __ZN3mlc4base8Type2StrIPNS_7DictObjINS_3AnyENS_3StrEEEE3RunEv, symObjAddr: 0x24E20, symBinAddr: 0x42850, symSize: 0x80 }
  - { offsetInCU: 0x73720, offset: 0x152929, size: 0x8, addend: 0x0, symName: __ZZNK3mlc7AnyView4CastINS_4DictINS_3AnyES3_EEEET_NS_4base3tag6ObjPtrEENKUlvE_clEv, symObjAddr: 0x25C00, symBinAddr: 0x43630, symSize: 0x600 }
  - { offsetInCU: 0x74AF3, offset: 0x153CFC, size: 0x8, addend: 0x0, symName: __ZN3mlc4core8Func2StrINS_4DictINS_3AnyES3_EEJS4_EE3RunIJLm0EEEENSt3__112basic_stringIcNS7_11char_traitsIcEENS7_9allocatorIcEEEENS7_16integer_sequenceImJXspT_EEEE, symObjAddr: 0x25680, symBinAddr: 0x430B0, symSize: 0x210 }
  - { offsetInCU: 0x75127, offset: 0x154330, size: 0x8, addend: 0x0, symName: __ZN3mlc4base8Type2StrINS_3RefINS_7DictObjINS_3AnyES4_EEEEE3RunEv, symObjAddr: 0x25B20, symBinAddr: 0x43550, symSize: 0xE0 }
  - { offsetInCU: 0x756EA, offset: 0x1548F3, size: 0x8, addend: 0x0, symName: '__ZN3mlc4core16FuncCallUnpackedIZNKS_12_GLOBAL__N_13$_0clENS_3StrEEUlNS_4DictINS_3AnyES6_EEE_EEvPKNS_7FuncObjEiPKNS_7AnyViewEPS6_.cold.1', symObjAddr: 0x283B0, symBinAddr: 0x55F20, symSize: 0x60 }
  - { offsetInCU: 0x7578C, offset: 0x154995, size: 0x8, addend: 0x0, symName: __ZN3mlc4base8Type2StrINS_4DictINS_3AnyES3_EEE3RunEv, symObjAddr: 0x25920, symBinAddr: 0x43350, symSize: 0x200 }
  - { offsetInCU: 0x7682B, offset: 0x155A34, size: 0x8, addend: 0x0, symName: '__ZN3mlc4base22DefaultObjectAllocatorINS_4core8FuncImplIZNKS_12_GLOBAL__N_13$_0clENS_3StrEEUlNS_4DictINS_3AnyES8_EEE_EEvE7DeleterEPv', symObjAddr: 0x25660, symBinAddr: 0x43090, symSize: 0x20 }
  - { offsetInCU: 0x7685A, offset: 0x155A63, size: 0x8, addend: 0x0, symName: __ZN3mlc4core8Func2StrINS_4DictINS_3AnyES3_EEJS4_EE5ApplyILm0EEEvRNSt3__113basic_ostreamIcNS7_11char_traitsIcEEEE, symObjAddr: 0x25890, symBinAddr: 0x432C0, symSize: 0x90 }
  - { offsetInCU: 0x76BB2, offset: 0x155DBB, size: 0x8, addend: 0x0, symName: __ZN3mlc4base8Type2StrINS_7DictObjINS_3AnyES3_EEE3RunEv, symObjAddr: 0x26200, symBinAddr: 0x43C30, symSize: 0x200 }
  - { offsetInCU: 0x77CF7, offset: 0x156F00, size: 0x8, addend: 0x0, symName: __ZN3mlc4base8Type2StrIPNS_7DictObjINS_3AnyES3_EEE3RunEv, symObjAddr: 0x26400, symBinAddr: 0x43E30, symSize: 0x80 }
  - { offsetInCU: 0x781B6, offset: 0x1573BF, size: 0x8, addend: 0x0, symName: __ZZNK3mlc7AnyView4CastINS_4DictINS_3StrENS_4ListIiEEEEEET_NS_4base3tag6ObjPtrEENKUlvE_clEv, symObjAddr: 0x26F70, symBinAddr: 0x449A0, symSize: 0x6D0 }
  - { offsetInCU: 0x7964C, offset: 0x158855, size: 0x8, addend: 0x0, symName: __ZN3mlc4core8Func2StrINS_4DictINS_3StrENS_4ListIiEEEEJS6_EE3RunIJLm0EEEENSt3__112basic_stringIcNS9_11char_traitsIcEENS9_9allocatorIcEEEENS9_16integer_sequenceImJXspT_EEEE, symObjAddr: 0x269D0, symBinAddr: 0x44400, symSize: 0x210 }
  - { offsetInCU: 0x79C80, offset: 0x158E89, size: 0x8, addend: 0x0, symName: __ZN3mlc4base8Type2StrINS_3RefINS_7DictObjINS_3StrENS_4ListIiEEEEEEE3RunEv, symObjAddr: 0x26E90, symBinAddr: 0x448C0, symSize: 0xE0 }
  - { offsetInCU: 0x7A243, offset: 0x15944C, size: 0x8, addend: 0x0, symName: '__ZN3mlc4core16FuncCallUnpackedIZNKS_12_GLOBAL__N_13$_0clENS_3StrEEUlNS_4DictIS4_NS_4ListIiEEEEE_EEvPKNS_7FuncObjEiPKNS_7AnyViewEPNS_3AnyE.cold.1', symObjAddr: 0x28410, symBinAddr: 0x55F80, symSize: 0x54 }
  - { offsetInCU: 0x7A2E5, offset: 0x1594EE, size: 0x8, addend: 0x0, symName: __ZN3mlc4base8Type2StrINS_4DictINS_3StrENS_4ListIiEEEEE3RunEv, symObjAddr: 0x26C70, symBinAddr: 0x446A0, symSize: 0x220 }
  - { offsetInCU: 0x7B21A, offset: 0x15A423, size: 0x8, addend: 0x0, symName: '__ZN3mlc4base22DefaultObjectAllocatorINS_4core8FuncImplIZNKS_12_GLOBAL__N_13$_0clENS_3StrEEUlNS_4DictIS6_NS_4ListIiEEEEE_EEvE7DeleterEPv', symObjAddr: 0x269B0, symBinAddr: 0x443E0, symSize: 0x20 }
  - { offsetInCU: 0x7B249, offset: 0x15A452, size: 0x8, addend: 0x0, symName: __ZN3mlc4core8Func2StrINS_4DictINS_3StrENS_4ListIiEEEEJS6_EE5ApplyILm0EEEvRNSt3__113basic_ostreamIcNS9_11char_traitsIcEEEE, symObjAddr: 0x26BE0, symBinAddr: 0x44610, symSize: 0x90 }
  - { offsetInCU: 0x7B5A1, offset: 0x15A7AA, size: 0x8, addend: 0x0, symName: __ZN3mlc4base8Type2StrINS_7DictObjINS_3StrENS_4ListIiEEEEE3RunEv, symObjAddr: 0x27640, symBinAddr: 0x45070, symSize: 0x220 }
  - { offsetInCU: 0x7C62D, offset: 0x15B836, size: 0x8, addend: 0x0, symName: __ZZN3mlc4core15NestedTypeCheckINS_4DictINS_3StrENS_4ListIiEEEEE3RunERK6MLCAnyENKUlPhPS8_SC_E_clESB_SC_SC_, symObjAddr: 0x278E0, symBinAddr: 0x45310, symSize: 0x810 }
  - { offsetInCU: 0x7E3B9, offset: 0x15D5C2, size: 0x8, addend: 0x0, symName: __ZN3mlc4base8Type2StrIPNS_7DictObjINS_3StrENS_4ListIiEEEEE3RunEv, symObjAddr: 0x27860, symBinAddr: 0x45290, symSize: 0x80 }
  - { offsetInCU: 0x4B, offset: 0x15D9EA, size: 0x8, addend: 0x0, symName: __ZN3mlc3ffi12_GLOBAL__N_19_bt_stateE, symObjAddr: 0x2DF58, symBinAddr: 0x68BB0, symSize: 0x0 }
  - { offsetInCU: 0x1DB, offset: 0x15DB7A, size: 0x8, addend: 0x0, symName: __ZN3mlc3ffi17GetTracebackLimitEv, symObjAddr: 0x0, symBinAddr: 0x49890, symSize: 0xE0 }
  - { offsetInCU: 0x985A, offset: 0x1671F9, size: 0x8, addend: 0x0, symName: __ZN3mlc3ffi16TracebackStorageD1Ev, symObjAddr: 0xE0, symBinAddr: 0x49970, symSize: 0x20 }
  - { offsetInCU: 0x9C77, offset: 0x167616, size: 0x8, addend: 0x0, symName: _MLCTraceback, symObjAddr: 0x100, symBinAddr: 0x49990, symSize: 0x1A0 }
  - { offsetInCU: 0xA312, offset: 0x167CB1, size: 0x8, addend: 0x0, symName: '__ZN3mlc3ffi12_GLOBAL__N_13$_08__invokeEPvPKci', symObjAddr: 0x340, symBinAddr: 0x49B30, symSize: 0xC0 }
  - { offsetInCU: 0xA775, offset: 0x168114, size: 0x8, addend: 0x0, symName: __ZNKSt3__16vectorIcNS_9allocatorIcEEE20__throw_length_errorB7v160006Ev, symObjAddr: 0x6A0, symBinAddr: 0x49BF0, symSize: 0x10 }
  - { offsetInCU: 0xA79E, offset: 0x16813D, size: 0x8, addend: 0x0, symName: '__ZZN3mlc3ffi12_GLOBAL__N_113TracebackImplEvEN3$_18__invokeEPvmPKciS5_', symObjAddr: 0x6B0, symBinAddr: 0x49C00, symSize: 0x2D0 }
  - { offsetInCU: 0xA82C, offset: 0x1681CB, size: 0x8, addend: 0x0, symName: '__ZZN3mlc3ffi12_GLOBAL__N_113TracebackImplEvEN3$_18__invokeEPvmPKciS5_', symObjAddr: 0x6B0, symBinAddr: 0x49C00, symSize: 0x2D0 }
  - { offsetInCU: 0xAE85, offset: 0x168824, size: 0x8, addend: 0x0, symName: __ZN3mlc3ffi16TracebackStorage6AppendEPKc, symObjAddr: 0x980, symBinAddr: 0x49ED0, symSize: 0x2B0 }
  - { offsetInCU: 0xB761, offset: 0x169100, size: 0x8, addend: 0x0, symName: __ZNSt3__16vectorIcNS_9allocatorIcEEE6insertIPKcLi0EEENS_11__wrap_iterIPcEENS7_IS6_EET_SB_, symObjAddr: 0xC50, symBinAddr: 0x4A1A0, symSize: 0x520 }
  - { offsetInCU: 0xC359, offset: 0x169CF8, size: 0x8, addend: 0x0, symName: '__ZZZN3mlc3ffi12_GLOBAL__N_113TracebackImplEvENK3$_1clEPvmPKciS5_ENUlS3_mS5_mmE_8__invokeES3_mS5_mm', symObjAddr: 0xC30, symBinAddr: 0x4A180, symSize: 0x10 }
  - { offsetInCU: 0xC3BE, offset: 0x169D5D, size: 0x8, addend: 0x0, symName: '__ZZZN3mlc3ffi12_GLOBAL__N_113TracebackImplEvENK3$_1clEPvmPKciS5_ENUlS3_S5_iE_8__invokeES3_S5_i', symObjAddr: 0xC40, symBinAddr: 0x4A190, symSize: 0x10 }
  - { offsetInCU: 0xC692, offset: 0x16A031, size: 0x8, addend: 0x0, symName: '__ZZN3mlc3ffi12_GLOBAL__N_113TracebackImplEvEN3$_28__invokeEPvPKci', symObjAddr: 0x1170, symBinAddr: 0x4A6C0, symSize: 0x6 }
...
